ARM GAS  C:\Users\hoang\AppData\Local\Temp\ccNMsdI7.s 			page 1


   1              		.cpu arm7tdmi
   2              		.eabi_attribute 20, 1
   3              		.eabi_attribute 21, 1
   4              		.eabi_attribute 23, 3
   5              		.eabi_attribute 24, 1
   6              		.eabi_attribute 25, 1
   7              		.eabi_attribute 26, 1
   8              		.eabi_attribute 30, 1
   9              		.eabi_attribute 34, 0
  10              		.eabi_attribute 18, 4
  11              		.file	"Print.cpp"
  12              		.text
  13              	.Ltext0:
  14              		.cfi_sections	.debug_frame
  15              		.section	.text._ZN5Print17availableForWriteEv,"axG",%progbits,_ZN5Print17availableForWriteEv,comda
  16              		.align	1
  17              		.weak	_ZN5Print17availableForWriteEv
  18              		.arch armv4t
  19              		.syntax unified
  20              		.code	16
  21              		.thumb_func
  22              		.fpu softvfp
  24              	_ZN5Print17availableForWriteEv:
  25              		.fnstart
  26              	.LVL0:
  27              	.LFB1249:
  28              		.file 1 "Core/Inc/Print.h"
   1:Core/Inc/Print.h **** /*
   2:Core/Inc/Print.h ****   Print.h - Base class that provides print() and println()
   3:Core/Inc/Print.h ****   Copyright (c) 2008 David A. Mellis.  All right reserved.
   4:Core/Inc/Print.h **** 
   5:Core/Inc/Print.h ****   This library is free software; you can redistribute it and/or
   6:Core/Inc/Print.h ****   modify it under the terms of the GNU Lesser General Public
   7:Core/Inc/Print.h ****   License as published by the Free Software Foundation; either
   8:Core/Inc/Print.h ****   version 2.1 of the License, or (at your option) any later version.
   9:Core/Inc/Print.h **** 
  10:Core/Inc/Print.h ****   This library is distributed in the hope that it will be useful,
  11:Core/Inc/Print.h ****   but WITHOUT ANY WARRANTY; without even the implied warranty of
  12:Core/Inc/Print.h ****   MERCHANTABILITY or FITNESS FOR A PARTICULAR PURPOSE.  See the GNU
  13:Core/Inc/Print.h ****   Lesser General Public License for more details.
  14:Core/Inc/Print.h **** 
  15:Core/Inc/Print.h ****   You should have received a copy of the GNU Lesser General Public
  16:Core/Inc/Print.h ****   License along with this library; if not, write to the Free Software
  17:Core/Inc/Print.h ****   Foundation, Inc., 51 Franklin St, Fifth Floor, Boston, MA  02110-1301  USA
  18:Core/Inc/Print.h **** */
  19:Core/Inc/Print.h **** 
  20:Core/Inc/Print.h **** #ifndef Print_h
  21:Core/Inc/Print.h **** #define Print_h
  22:Core/Inc/Print.h **** 
  23:Core/Inc/Print.h **** #include <cinttypes>
  24:Core/Inc/Print.h **** #include <cstdio> // for size_t
  25:Core/Inc/Print.h **** #include <cstring>
  26:Core/Inc/Print.h **** #include <string>
  27:Core/Inc/Print.h **** //#include "WString"
  28:Core/Inc/Print.h **** 
  29:Core/Inc/Print.h **** using std::string;
  30:Core/Inc/Print.h **** typedef string String;
ARM GAS  C:\Users\hoang\AppData\Local\Temp\ccNMsdI7.s 			page 2


  31:Core/Inc/Print.h **** 
  32:Core/Inc/Print.h **** 
  33:Core/Inc/Print.h **** #define DEC 10
  34:Core/Inc/Print.h **** #define HEX 16
  35:Core/Inc/Print.h **** #define OCT 8
  36:Core/Inc/Print.h **** #ifdef BIN // Prevent warnings if BIN is previously defined in "iotnx4.h" or similar
  37:Core/Inc/Print.h **** #undef BIN
  38:Core/Inc/Print.h **** #endif
  39:Core/Inc/Print.h **** #define BIN 2
  40:Core/Inc/Print.h **** 
  41:Core/Inc/Print.h **** class Print
  42:Core/Inc/Print.h **** {
  43:Core/Inc/Print.h ****   private:
  44:Core/Inc/Print.h ****     int write_error;
  45:Core/Inc/Print.h ****     size_t printNumber(unsigned long, uint8_t);
  46:Core/Inc/Print.h ****     size_t printFloat(double, uint8_t);
  47:Core/Inc/Print.h ****   protected:
  48:Core/Inc/Print.h ****     void setWriteError(int err = 1) { write_error = err; }
  49:Core/Inc/Print.h ****   public:
  50:Core/Inc/Print.h ****     Print() : write_error(0) {}
  51:Core/Inc/Print.h ****   
  52:Core/Inc/Print.h ****     int getWriteError() { return write_error; }
  53:Core/Inc/Print.h ****     void clearWriteError() { setWriteError(0); }
  54:Core/Inc/Print.h ****     virtual size_t write(uint8_t) = 0;
  55:Core/Inc/Print.h **** 
  56:Core/Inc/Print.h ****     size_t write(const char *str) {
  57:Core/Inc/Print.h ****       if (str == NULL) return 0;
  58:Core/Inc/Print.h ****       return write((const uint8_t *)str, strlen(str));
  59:Core/Inc/Print.h ****     }
  60:Core/Inc/Print.h ****     virtual size_t write(const uint8_t *buffer, size_t size);
  61:Core/Inc/Print.h ****     size_t write(const char *buffer, size_t size) {
  62:Core/Inc/Print.h ****       return write((const uint8_t *)buffer, size);
  63:Core/Inc/Print.h ****     }
  64:Core/Inc/Print.h **** 
  65:Core/Inc/Print.h ****     // default to zero, meaning "a single write may block"
  66:Core/Inc/Print.h ****     // should be overriden by subclasses with buffering
  67:Core/Inc/Print.h ****     virtual int availableForWrite() { return 0; }
  29              		.loc 1 67 17 view -0
  30              		.cfi_startproc
  31              		@ Function supports interworking.
  32              		@ args = 0, pretend = 0, frame = 0
  33              		@ frame_needed = 0, uses_anonymous_args = 0
  34              		@ link register save eliminated.
  35              		.loc 1 67 39 view .LVU1
  36              		.loc 1 67 49 is_stmt 0 view .LVU2
  37 0000 0020     		movs	r0, #0
  38              	.LVL1:
  39              		.loc 1 67 49 view .LVU3
  40              		@ sp needed
  41 0002 7047     		bx	lr
  42              		.cfi_endproc
  43              	.LFE1249:
  44              		.cantunwind
  45              		.fnend
  47              		.section	.text._ZN5Print5flushEv,"axG",%progbits,_ZN5Print5flushEv,comdat
  48              		.align	1
  49              		.weak	_ZN5Print5flushEv
ARM GAS  C:\Users\hoang\AppData\Local\Temp\ccNMsdI7.s 			page 3


  50              		.syntax unified
  51              		.code	16
  52              		.thumb_func
  53              		.fpu softvfp
  55              	_ZN5Print5flushEv:
  56              		.fnstart
  57              	.LVL2:
  58              	.LFB1250:
  68:Core/Inc/Print.h **** 
  69:Core/Inc/Print.h ****     size_t print(const String &);
  70:Core/Inc/Print.h ****     size_t print(const char[]);
  71:Core/Inc/Print.h ****     size_t print(char);
  72:Core/Inc/Print.h ****     size_t print(unsigned char, int = DEC);
  73:Core/Inc/Print.h ****     size_t print(int, int = DEC);
  74:Core/Inc/Print.h ****     size_t print(unsigned int, int = DEC);
  75:Core/Inc/Print.h ****     size_t print(long, int = DEC);
  76:Core/Inc/Print.h ****     size_t print(unsigned long, int = DEC);
  77:Core/Inc/Print.h ****     size_t print(double, int = 2);
  78:Core/Inc/Print.h **** 
  79:Core/Inc/Print.h **** 
  80:Core/Inc/Print.h **** 
  81:Core/Inc/Print.h ****     size_t println(const String &s);
  82:Core/Inc/Print.h ****     size_t println(const char[]);
  83:Core/Inc/Print.h ****     size_t println(char);
  84:Core/Inc/Print.h ****     size_t println(unsigned char, int = DEC);
  85:Core/Inc/Print.h ****     size_t println(int, int = DEC);
  86:Core/Inc/Print.h ****     size_t println(unsigned int, int = DEC);
  87:Core/Inc/Print.h ****     size_t println(long, int = DEC);
  88:Core/Inc/Print.h ****     size_t println(unsigned long, int = DEC);
  89:Core/Inc/Print.h ****     size_t println(double, int = 2);
  90:Core/Inc/Print.h ****     size_t println(void);
  91:Core/Inc/Print.h **** 
  92:Core/Inc/Print.h ****     virtual void flush() { /* Empty implementation for backward compatibility */ }
  59              		.loc 1 92 18 is_stmt 1 view -0
  60              		.cfi_startproc
  61              		@ Function supports interworking.
  62              		@ args = 0, pretend = 0, frame = 0
  63              		@ frame_needed = 0, uses_anonymous_args = 0
  64              		@ link register save eliminated.
  65              		.loc 1 92 82 is_stmt 0 view .LVU5
  66              		@ sp needed
  67 0000 7047     		bx	lr
  68              		.cfi_endproc
  69              	.LFE1250:
  70              		.cantunwind
  71              		.fnend
  73              		.section	.text._ZN5Print5writeEPKhj,"ax",%progbits
  74              		.align	1
  75              		.global	_ZN5Print5writeEPKhj
  76              		.syntax unified
  77              		.code	16
  78              		.thumb_func
  79              		.fpu softvfp
  81              	_ZN5Print5writeEPKhj:
  82              		.fnstart
  83              	.LVL3:
  84              	.LFB1251:
ARM GAS  C:\Users\hoang\AppData\Local\Temp\ccNMsdI7.s 			page 4


  85              		.file 2 "Core/Src/Print.cpp"
   1:Core/Src/Print.cpp **** /*
   2:Core/Src/Print.cpp ****  Print.cpp - Base class that provides print() and println()
   3:Core/Src/Print.cpp ****  Copyright (c) 2008 David A. Mellis.  All right reserved.
   4:Core/Src/Print.cpp ****  
   5:Core/Src/Print.cpp ****  This library is free software; you can redistribute it and/or
   6:Core/Src/Print.cpp ****  modify it under the terms of the GNU Lesser General Public
   7:Core/Src/Print.cpp ****  License as published by the Free Software Foundation; either
   8:Core/Src/Print.cpp ****  version 2.1 of the License, or (at your option) any later version.
   9:Core/Src/Print.cpp ****  
  10:Core/Src/Print.cpp ****  This library is distributed in the hope that it will be useful,
  11:Core/Src/Print.cpp ****  but WITHOUT ANY WARRANTY; without even the implied warranty of
  12:Core/Src/Print.cpp ****  MERCHANTABILITY or FITNESS FOR A PARTICULAR PURPOSE.  See the GNU
  13:Core/Src/Print.cpp ****  Lesser General Public License for more details.
  14:Core/Src/Print.cpp ****  
  15:Core/Src/Print.cpp ****  You should have received a copy of the GNU Lesser General Public
  16:Core/Src/Print.cpp ****  License along with this library; if not, write to the Free Software
  17:Core/Src/Print.cpp ****  Foundation, Inc., 51 Franklin St, Fifth Floor, Boston, MA  02110-1301  USA
  18:Core/Src/Print.cpp ****  
  19:Core/Src/Print.cpp ****  Modified 23 November 2006 by David A. Mellis
  20:Core/Src/Print.cpp ****  Modified 03 August 2015 by Chuck Todd
  21:Core/Src/Print.cpp ****  */
  22:Core/Src/Print.cpp **** 
  23:Core/Src/Print.cpp **** #include <stdlib.h>
  24:Core/Src/Print.cpp **** #include <stdio.h>
  25:Core/Src/Print.cpp **** #include <string>
  26:Core/Src/Print.cpp **** #include <math.h>
  27:Core/Src/Print.cpp **** 
  28:Core/Src/Print.cpp **** //#include "Arduino.h"
  29:Core/Src/Print.cpp **** 
  30:Core/Src/Print.cpp **** 
  31:Core/Src/Print.cpp **** #include "Print.h"
  32:Core/Src/Print.cpp **** 
  33:Core/Src/Print.cpp **** // Public Methods //////////////////////////////////////////////////////////////
  34:Core/Src/Print.cpp **** 
  35:Core/Src/Print.cpp **** /* default implementation: may be overridden */
  36:Core/Src/Print.cpp **** size_t Print::write(const uint8_t *buffer, size_t size)
  37:Core/Src/Print.cpp **** {
  86              		.loc 2 37 1 is_stmt 1 view -0
  87              		.cfi_startproc
  88              		@ Function supports interworking.
  89              		@ args = 0, pretend = 0, frame = 0
  90              		@ frame_needed = 0, uses_anonymous_args = 0
  91              		.loc 2 37 1 is_stmt 0 view .LVU7
  92 0000 F8B5     		push	{r3, r4, r5, r6, r7, lr}
  93              		.save {r3, r4, r5, r6, r7, lr}
  94              	.LCFI0:
  95              		.cfi_def_cfa_offset 24
  96              		.cfi_offset 3, -24
  97              		.cfi_offset 4, -20
  98              		.cfi_offset 5, -16
  99              		.cfi_offset 6, -12
 100              		.cfi_offset 7, -8
 101              		.cfi_offset 14, -4
 102 0002 0400     		movs	r4, r0
  38:Core/Src/Print.cpp ****   size_t n = 0;
 103              		.loc 2 38 3 is_stmt 1 view .LVU8
ARM GAS  C:\Users\hoang\AppData\Local\Temp\ccNMsdI7.s 			page 5


 104              	.LVL4:
 105              		.loc 2 38 10 is_stmt 0 view .LVU9
 106 0004 0025     		movs	r5, #0
 107 0006 02E0     		b	.L5
 108              	.LVL5:
 109              	.L6:
  39:Core/Src/Print.cpp ****   while (size--) {
  40:Core/Src/Print.cpp ****     if (write(*buffer++)) n++;
 110              		.loc 2 40 27 is_stmt 1 discriminator 1 view .LVU10
 111              		.loc 2 40 28 is_stmt 0 discriminator 1 view .LVU11
 112 0008 0135     		adds	r5, r5, #1
 113              	.LVL6:
  39:Core/Src/Print.cpp ****   while (size--) {
 114              		.loc 2 39 14 discriminator 1 view .LVU12
 115 000a 3200     		movs	r2, r6
 116              		.loc 2 40 22 discriminator 1 view .LVU13
 117 000c 3900     		movs	r1, r7
 118              	.LVL7:
 119              	.L5:
  39:Core/Src/Print.cpp ****   while (size--) {
 120              		.loc 2 39 3 is_stmt 1 view .LVU14
  39:Core/Src/Print.cpp ****   while (size--) {
 121              		.loc 2 39 14 view .LVU15
 122 000e 561E     		subs	r6, r2, #1
 123              	.LVL8:
  39:Core/Src/Print.cpp ****   while (size--) {
 124              		.loc 2 39 14 is_stmt 0 view .LVU16
 125 0010 002A     		cmp	r2, #0
 126 0012 08D0     		beq	.L3
 127              		.loc 2 40 5 is_stmt 1 view .LVU17
 128              		.loc 2 40 24 is_stmt 0 view .LVU18
 129 0014 2368     		ldr	r3, [r4]
 130 0016 1B68     		ldr	r3, [r3]
 131              		.loc 2 40 22 view .LVU19
 132 0018 4F1C     		adds	r7, r1, #1
 133              	.LVL9:
 134              		.loc 2 40 14 view .LVU20
 135 001a 0978     		ldrb	r1, [r1]
 136 001c 2000     		movs	r0, r4
 137 001e 00F006F8 		bl	.L7
 138              	.LVL10:
 139              		.loc 2 40 5 view .LVU21
 140 0022 0028     		cmp	r0, #0
 141 0024 F0D1     		bne	.L6
 142              	.LVL11:
 143              	.L3:
  41:Core/Src/Print.cpp ****     else break;
  42:Core/Src/Print.cpp ****   }
  43:Core/Src/Print.cpp ****   return n;
  44:Core/Src/Print.cpp **** }
 144              		.loc 2 44 1 view .LVU22
 145 0026 2800     		movs	r0, r5
 146              		@ sp needed
 147              	.LVL12:
 148              	.LVL13:
 149              	.LVL14:
 150              		.loc 2 44 1 view .LVU23
ARM GAS  C:\Users\hoang\AppData\Local\Temp\ccNMsdI7.s 			page 6


 151 0028 F8BC     		pop	{r3, r4, r5, r6, r7}
 152 002a 02BC     		pop	{r1}
 153 002c 0847     		bx	r1
 154              	.L7:
 155 002e 1847     		bx	r3
 156              		.cfi_endproc
 157              	.LFE1251:
 158              		.fnend
 160              		.section	.text._ZN5Print5printERKNSt7__cxx1112basic_stringIcSt11char_traitsIcESaIcEEE,"ax",%progbi
 161              		.align	1
 162              		.global	_ZN5Print5printERKNSt7__cxx1112basic_stringIcSt11char_traitsIcESaIcEEE
 163              		.syntax unified
 164              		.code	16
 165              		.thumb_func
 166              		.fpu softvfp
 168              	_ZN5Print5printERKNSt7__cxx1112basic_stringIcSt11char_traitsIcESaIcEEE:
 169              		.fnstart
 170              	.LVL15:
 171              	.LFB1252:
  45:Core/Src/Print.cpp **** 
  46:Core/Src/Print.cpp **** size_t Print::print(const String &s)
  47:Core/Src/Print.cpp **** {
 172              		.loc 2 47 1 is_stmt 1 view -0
 173              		.cfi_startproc
 174              		@ Function supports interworking.
 175              		@ args = 0, pretend = 0, frame = 0
 176              		@ frame_needed = 0, uses_anonymous_args = 0
 177              		.loc 2 47 1 is_stmt 0 view .LVU25
 178 0000 10B5     		push	{r4, lr}
 179              		.save {r4, lr}
 180              	.LCFI1:
 181              		.cfi_def_cfa_offset 8
 182              		.cfi_offset 4, -8
 183              		.cfi_offset 14, -4
 184 0002 0B00     		movs	r3, r1
  48:Core/Src/Print.cpp ****   return write(s.c_str(), s.length());
 185              		.loc 2 48 3 is_stmt 1 view .LVU26
 186              	.LVL16:
 187              	.LBB18:
 188              	.LBI18:
 189              		.file 3 "c:\\gcc-arm-none-eabi-10-2020-q4-major-win32\\gcc-arm-none-eabi-10-2020-q4-major\\arm-non
   1:c:\gcc-arm-none-eabi-10-2020-q4-major-win32\gcc-arm-none-eabi-10-2020-q4-major\arm-none-eabi\include\c++\10.2.1\bits\basic_string.h **** // Components for manipulating sequences of characters -*- C++ -*-
   2:c:\gcc-arm-none-eabi-10-2020-q4-major-win32\gcc-arm-none-eabi-10-2020-q4-major\arm-none-eabi\include\c++\10.2.1\bits\basic_string.h **** 
   3:c:\gcc-arm-none-eabi-10-2020-q4-major-win32\gcc-arm-none-eabi-10-2020-q4-major\arm-none-eabi\include\c++\10.2.1\bits\basic_string.h **** // Copyright (C) 1997-2020 Free Software Foundation, Inc.
   4:c:\gcc-arm-none-eabi-10-2020-q4-major-win32\gcc-arm-none-eabi-10-2020-q4-major\arm-none-eabi\include\c++\10.2.1\bits\basic_string.h **** //
   5:c:\gcc-arm-none-eabi-10-2020-q4-major-win32\gcc-arm-none-eabi-10-2020-q4-major\arm-none-eabi\include\c++\10.2.1\bits\basic_string.h **** // This file is part of the GNU ISO C++ Library.  This library is free
   6:c:\gcc-arm-none-eabi-10-2020-q4-major-win32\gcc-arm-none-eabi-10-2020-q4-major\arm-none-eabi\include\c++\10.2.1\bits\basic_string.h **** // software; you can redistribute it and/or modify it under the
   7:c:\gcc-arm-none-eabi-10-2020-q4-major-win32\gcc-arm-none-eabi-10-2020-q4-major\arm-none-eabi\include\c++\10.2.1\bits\basic_string.h **** // terms of the GNU General Public License as published by the
   8:c:\gcc-arm-none-eabi-10-2020-q4-major-win32\gcc-arm-none-eabi-10-2020-q4-major\arm-none-eabi\include\c++\10.2.1\bits\basic_string.h **** // Free Software Foundation; either version 3, or (at your option)
   9:c:\gcc-arm-none-eabi-10-2020-q4-major-win32\gcc-arm-none-eabi-10-2020-q4-major\arm-none-eabi\include\c++\10.2.1\bits\basic_string.h **** // any later version.
  10:c:\gcc-arm-none-eabi-10-2020-q4-major-win32\gcc-arm-none-eabi-10-2020-q4-major\arm-none-eabi\include\c++\10.2.1\bits\basic_string.h **** 
  11:c:\gcc-arm-none-eabi-10-2020-q4-major-win32\gcc-arm-none-eabi-10-2020-q4-major\arm-none-eabi\include\c++\10.2.1\bits\basic_string.h **** // This library is distributed in the hope that it will be useful,
  12:c:\gcc-arm-none-eabi-10-2020-q4-major-win32\gcc-arm-none-eabi-10-2020-q4-major\arm-none-eabi\include\c++\10.2.1\bits\basic_string.h **** // but WITHOUT ANY WARRANTY; without even the implied warranty of
  13:c:\gcc-arm-none-eabi-10-2020-q4-major-win32\gcc-arm-none-eabi-10-2020-q4-major\arm-none-eabi\include\c++\10.2.1\bits\basic_string.h **** // MERCHANTABILITY or FITNESS FOR A PARTICULAR PURPOSE.  See the
  14:c:\gcc-arm-none-eabi-10-2020-q4-major-win32\gcc-arm-none-eabi-10-2020-q4-major\arm-none-eabi\include\c++\10.2.1\bits\basic_string.h **** // GNU General Public License for more details.
  15:c:\gcc-arm-none-eabi-10-2020-q4-major-win32\gcc-arm-none-eabi-10-2020-q4-major\arm-none-eabi\include\c++\10.2.1\bits\basic_string.h **** 
  16:c:\gcc-arm-none-eabi-10-2020-q4-major-win32\gcc-arm-none-eabi-10-2020-q4-major\arm-none-eabi\include\c++\10.2.1\bits\basic_string.h **** // Under Section 7 of GPL version 3, you are granted additional
ARM GAS  C:\Users\hoang\AppData\Local\Temp\ccNMsdI7.s 			page 7


  17:c:\gcc-arm-none-eabi-10-2020-q4-major-win32\gcc-arm-none-eabi-10-2020-q4-major\arm-none-eabi\include\c++\10.2.1\bits\basic_string.h **** // permissions described in the GCC Runtime Library Exception, version
  18:c:\gcc-arm-none-eabi-10-2020-q4-major-win32\gcc-arm-none-eabi-10-2020-q4-major\arm-none-eabi\include\c++\10.2.1\bits\basic_string.h **** // 3.1, as published by the Free Software Foundation.
  19:c:\gcc-arm-none-eabi-10-2020-q4-major-win32\gcc-arm-none-eabi-10-2020-q4-major\arm-none-eabi\include\c++\10.2.1\bits\basic_string.h **** 
  20:c:\gcc-arm-none-eabi-10-2020-q4-major-win32\gcc-arm-none-eabi-10-2020-q4-major\arm-none-eabi\include\c++\10.2.1\bits\basic_string.h **** // You should have received a copy of the GNU General Public License and
  21:c:\gcc-arm-none-eabi-10-2020-q4-major-win32\gcc-arm-none-eabi-10-2020-q4-major\arm-none-eabi\include\c++\10.2.1\bits\basic_string.h **** // a copy of the GCC Runtime Library Exception along with this program;
  22:c:\gcc-arm-none-eabi-10-2020-q4-major-win32\gcc-arm-none-eabi-10-2020-q4-major\arm-none-eabi\include\c++\10.2.1\bits\basic_string.h **** // see the files COPYING3 and COPYING.RUNTIME respectively.  If not, see
  23:c:\gcc-arm-none-eabi-10-2020-q4-major-win32\gcc-arm-none-eabi-10-2020-q4-major\arm-none-eabi\include\c++\10.2.1\bits\basic_string.h **** // <http://www.gnu.org/licenses/>.
  24:c:\gcc-arm-none-eabi-10-2020-q4-major-win32\gcc-arm-none-eabi-10-2020-q4-major\arm-none-eabi\include\c++\10.2.1\bits\basic_string.h **** 
  25:c:\gcc-arm-none-eabi-10-2020-q4-major-win32\gcc-arm-none-eabi-10-2020-q4-major\arm-none-eabi\include\c++\10.2.1\bits\basic_string.h **** /** @file bits/basic_string.h
  26:c:\gcc-arm-none-eabi-10-2020-q4-major-win32\gcc-arm-none-eabi-10-2020-q4-major\arm-none-eabi\include\c++\10.2.1\bits\basic_string.h ****  *  This is an internal header file, included by other library headers.
  27:c:\gcc-arm-none-eabi-10-2020-q4-major-win32\gcc-arm-none-eabi-10-2020-q4-major\arm-none-eabi\include\c++\10.2.1\bits\basic_string.h ****  *  Do not attempt to use it directly. @headername{string}
  28:c:\gcc-arm-none-eabi-10-2020-q4-major-win32\gcc-arm-none-eabi-10-2020-q4-major\arm-none-eabi\include\c++\10.2.1\bits\basic_string.h ****  */
  29:c:\gcc-arm-none-eabi-10-2020-q4-major-win32\gcc-arm-none-eabi-10-2020-q4-major\arm-none-eabi\include\c++\10.2.1\bits\basic_string.h **** 
  30:c:\gcc-arm-none-eabi-10-2020-q4-major-win32\gcc-arm-none-eabi-10-2020-q4-major\arm-none-eabi\include\c++\10.2.1\bits\basic_string.h **** //
  31:c:\gcc-arm-none-eabi-10-2020-q4-major-win32\gcc-arm-none-eabi-10-2020-q4-major\arm-none-eabi\include\c++\10.2.1\bits\basic_string.h **** // ISO C++ 14882: 21 Strings library
  32:c:\gcc-arm-none-eabi-10-2020-q4-major-win32\gcc-arm-none-eabi-10-2020-q4-major\arm-none-eabi\include\c++\10.2.1\bits\basic_string.h **** //
  33:c:\gcc-arm-none-eabi-10-2020-q4-major-win32\gcc-arm-none-eabi-10-2020-q4-major\arm-none-eabi\include\c++\10.2.1\bits\basic_string.h **** 
  34:c:\gcc-arm-none-eabi-10-2020-q4-major-win32\gcc-arm-none-eabi-10-2020-q4-major\arm-none-eabi\include\c++\10.2.1\bits\basic_string.h **** #ifndef _BASIC_STRING_H
  35:c:\gcc-arm-none-eabi-10-2020-q4-major-win32\gcc-arm-none-eabi-10-2020-q4-major\arm-none-eabi\include\c++\10.2.1\bits\basic_string.h **** #define _BASIC_STRING_H 1
  36:c:\gcc-arm-none-eabi-10-2020-q4-major-win32\gcc-arm-none-eabi-10-2020-q4-major\arm-none-eabi\include\c++\10.2.1\bits\basic_string.h **** 
  37:c:\gcc-arm-none-eabi-10-2020-q4-major-win32\gcc-arm-none-eabi-10-2020-q4-major\arm-none-eabi\include\c++\10.2.1\bits\basic_string.h **** #pragma GCC system_header
  38:c:\gcc-arm-none-eabi-10-2020-q4-major-win32\gcc-arm-none-eabi-10-2020-q4-major\arm-none-eabi\include\c++\10.2.1\bits\basic_string.h **** 
  39:c:\gcc-arm-none-eabi-10-2020-q4-major-win32\gcc-arm-none-eabi-10-2020-q4-major\arm-none-eabi\include\c++\10.2.1\bits\basic_string.h **** #include <ext/atomicity.h>
  40:c:\gcc-arm-none-eabi-10-2020-q4-major-win32\gcc-arm-none-eabi-10-2020-q4-major\arm-none-eabi\include\c++\10.2.1\bits\basic_string.h **** #include <ext/alloc_traits.h>
  41:c:\gcc-arm-none-eabi-10-2020-q4-major-win32\gcc-arm-none-eabi-10-2020-q4-major\arm-none-eabi\include\c++\10.2.1\bits\basic_string.h **** #include <debug/debug.h>
  42:c:\gcc-arm-none-eabi-10-2020-q4-major-win32\gcc-arm-none-eabi-10-2020-q4-major\arm-none-eabi\include\c++\10.2.1\bits\basic_string.h **** 
  43:c:\gcc-arm-none-eabi-10-2020-q4-major-win32\gcc-arm-none-eabi-10-2020-q4-major\arm-none-eabi\include\c++\10.2.1\bits\basic_string.h **** #if __cplusplus >= 201103L
  44:c:\gcc-arm-none-eabi-10-2020-q4-major-win32\gcc-arm-none-eabi-10-2020-q4-major\arm-none-eabi\include\c++\10.2.1\bits\basic_string.h **** #include <initializer_list>
  45:c:\gcc-arm-none-eabi-10-2020-q4-major-win32\gcc-arm-none-eabi-10-2020-q4-major\arm-none-eabi\include\c++\10.2.1\bits\basic_string.h **** #endif
  46:c:\gcc-arm-none-eabi-10-2020-q4-major-win32\gcc-arm-none-eabi-10-2020-q4-major\arm-none-eabi\include\c++\10.2.1\bits\basic_string.h **** 
  47:c:\gcc-arm-none-eabi-10-2020-q4-major-win32\gcc-arm-none-eabi-10-2020-q4-major\arm-none-eabi\include\c++\10.2.1\bits\basic_string.h **** #if __cplusplus >= 201703L
  48:c:\gcc-arm-none-eabi-10-2020-q4-major-win32\gcc-arm-none-eabi-10-2020-q4-major\arm-none-eabi\include\c++\10.2.1\bits\basic_string.h **** # include <string_view>
  49:c:\gcc-arm-none-eabi-10-2020-q4-major-win32\gcc-arm-none-eabi-10-2020-q4-major\arm-none-eabi\include\c++\10.2.1\bits\basic_string.h **** #endif
  50:c:\gcc-arm-none-eabi-10-2020-q4-major-win32\gcc-arm-none-eabi-10-2020-q4-major\arm-none-eabi\include\c++\10.2.1\bits\basic_string.h **** 
  51:c:\gcc-arm-none-eabi-10-2020-q4-major-win32\gcc-arm-none-eabi-10-2020-q4-major\arm-none-eabi\include\c++\10.2.1\bits\basic_string.h **** 
  52:c:\gcc-arm-none-eabi-10-2020-q4-major-win32\gcc-arm-none-eabi-10-2020-q4-major\arm-none-eabi\include\c++\10.2.1\bits\basic_string.h **** namespace std _GLIBCXX_VISIBILITY(default)
  53:c:\gcc-arm-none-eabi-10-2020-q4-major-win32\gcc-arm-none-eabi-10-2020-q4-major\arm-none-eabi\include\c++\10.2.1\bits\basic_string.h **** {
  54:c:\gcc-arm-none-eabi-10-2020-q4-major-win32\gcc-arm-none-eabi-10-2020-q4-major\arm-none-eabi\include\c++\10.2.1\bits\basic_string.h **** _GLIBCXX_BEGIN_NAMESPACE_VERSION
  55:c:\gcc-arm-none-eabi-10-2020-q4-major-win32\gcc-arm-none-eabi-10-2020-q4-major\arm-none-eabi\include\c++\10.2.1\bits\basic_string.h **** 
  56:c:\gcc-arm-none-eabi-10-2020-q4-major-win32\gcc-arm-none-eabi-10-2020-q4-major\arm-none-eabi\include\c++\10.2.1\bits\basic_string.h **** #if _GLIBCXX_USE_CXX11_ABI
  57:c:\gcc-arm-none-eabi-10-2020-q4-major-win32\gcc-arm-none-eabi-10-2020-q4-major\arm-none-eabi\include\c++\10.2.1\bits\basic_string.h **** _GLIBCXX_BEGIN_NAMESPACE_CXX11
  58:c:\gcc-arm-none-eabi-10-2020-q4-major-win32\gcc-arm-none-eabi-10-2020-q4-major\arm-none-eabi\include\c++\10.2.1\bits\basic_string.h ****   /**
  59:c:\gcc-arm-none-eabi-10-2020-q4-major-win32\gcc-arm-none-eabi-10-2020-q4-major\arm-none-eabi\include\c++\10.2.1\bits\basic_string.h ****    *  @class basic_string basic_string.h <string>
  60:c:\gcc-arm-none-eabi-10-2020-q4-major-win32\gcc-arm-none-eabi-10-2020-q4-major\arm-none-eabi\include\c++\10.2.1\bits\basic_string.h ****    *  @brief  Managing sequences of characters and character-like objects.
  61:c:\gcc-arm-none-eabi-10-2020-q4-major-win32\gcc-arm-none-eabi-10-2020-q4-major\arm-none-eabi\include\c++\10.2.1\bits\basic_string.h ****    *
  62:c:\gcc-arm-none-eabi-10-2020-q4-major-win32\gcc-arm-none-eabi-10-2020-q4-major\arm-none-eabi\include\c++\10.2.1\bits\basic_string.h ****    *  @ingroup strings
  63:c:\gcc-arm-none-eabi-10-2020-q4-major-win32\gcc-arm-none-eabi-10-2020-q4-major\arm-none-eabi\include\c++\10.2.1\bits\basic_string.h ****    *  @ingroup sequences
  64:c:\gcc-arm-none-eabi-10-2020-q4-major-win32\gcc-arm-none-eabi-10-2020-q4-major\arm-none-eabi\include\c++\10.2.1\bits\basic_string.h ****    *
  65:c:\gcc-arm-none-eabi-10-2020-q4-major-win32\gcc-arm-none-eabi-10-2020-q4-major\arm-none-eabi\include\c++\10.2.1\bits\basic_string.h ****    *  @tparam _CharT  Type of character
  66:c:\gcc-arm-none-eabi-10-2020-q4-major-win32\gcc-arm-none-eabi-10-2020-q4-major\arm-none-eabi\include\c++\10.2.1\bits\basic_string.h ****    *  @tparam _Traits  Traits for character type, defaults to
  67:c:\gcc-arm-none-eabi-10-2020-q4-major-win32\gcc-arm-none-eabi-10-2020-q4-major\arm-none-eabi\include\c++\10.2.1\bits\basic_string.h ****    *                   char_traits<_CharT>.
  68:c:\gcc-arm-none-eabi-10-2020-q4-major-win32\gcc-arm-none-eabi-10-2020-q4-major\arm-none-eabi\include\c++\10.2.1\bits\basic_string.h ****    *  @tparam _Alloc  Allocator type, defaults to allocator<_CharT>.
  69:c:\gcc-arm-none-eabi-10-2020-q4-major-win32\gcc-arm-none-eabi-10-2020-q4-major\arm-none-eabi\include\c++\10.2.1\bits\basic_string.h ****    *
  70:c:\gcc-arm-none-eabi-10-2020-q4-major-win32\gcc-arm-none-eabi-10-2020-q4-major\arm-none-eabi\include\c++\10.2.1\bits\basic_string.h ****    *  Meets the requirements of a <a href="tables.html#65">container</a>, a
  71:c:\gcc-arm-none-eabi-10-2020-q4-major-win32\gcc-arm-none-eabi-10-2020-q4-major\arm-none-eabi\include\c++\10.2.1\bits\basic_string.h ****    *  <a href="tables.html#66">reversible container</a>, and a
  72:c:\gcc-arm-none-eabi-10-2020-q4-major-win32\gcc-arm-none-eabi-10-2020-q4-major\arm-none-eabi\include\c++\10.2.1\bits\basic_string.h ****    *  <a href="tables.html#67">sequence</a>.  Of the
  73:c:\gcc-arm-none-eabi-10-2020-q4-major-win32\gcc-arm-none-eabi-10-2020-q4-major\arm-none-eabi\include\c++\10.2.1\bits\basic_string.h ****    *  <a href="tables.html#68">optional sequence requirements</a>, only
ARM GAS  C:\Users\hoang\AppData\Local\Temp\ccNMsdI7.s 			page 8


  74:c:\gcc-arm-none-eabi-10-2020-q4-major-win32\gcc-arm-none-eabi-10-2020-q4-major\arm-none-eabi\include\c++\10.2.1\bits\basic_string.h ****    *  @c push_back, @c at, and @c %array access are supported.
  75:c:\gcc-arm-none-eabi-10-2020-q4-major-win32\gcc-arm-none-eabi-10-2020-q4-major\arm-none-eabi\include\c++\10.2.1\bits\basic_string.h ****    */
  76:c:\gcc-arm-none-eabi-10-2020-q4-major-win32\gcc-arm-none-eabi-10-2020-q4-major\arm-none-eabi\include\c++\10.2.1\bits\basic_string.h ****   template<typename _CharT, typename _Traits, typename _Alloc>
  77:c:\gcc-arm-none-eabi-10-2020-q4-major-win32\gcc-arm-none-eabi-10-2020-q4-major\arm-none-eabi\include\c++\10.2.1\bits\basic_string.h ****     class basic_string
  78:c:\gcc-arm-none-eabi-10-2020-q4-major-win32\gcc-arm-none-eabi-10-2020-q4-major\arm-none-eabi\include\c++\10.2.1\bits\basic_string.h ****     {
  79:c:\gcc-arm-none-eabi-10-2020-q4-major-win32\gcc-arm-none-eabi-10-2020-q4-major\arm-none-eabi\include\c++\10.2.1\bits\basic_string.h ****       typedef typename __gnu_cxx::__alloc_traits<_Alloc>::template
  80:c:\gcc-arm-none-eabi-10-2020-q4-major-win32\gcc-arm-none-eabi-10-2020-q4-major\arm-none-eabi\include\c++\10.2.1\bits\basic_string.h **** 	rebind<_CharT>::other _Char_alloc_type;
  81:c:\gcc-arm-none-eabi-10-2020-q4-major-win32\gcc-arm-none-eabi-10-2020-q4-major\arm-none-eabi\include\c++\10.2.1\bits\basic_string.h ****       typedef __gnu_cxx::__alloc_traits<_Char_alloc_type> _Alloc_traits;
  82:c:\gcc-arm-none-eabi-10-2020-q4-major-win32\gcc-arm-none-eabi-10-2020-q4-major\arm-none-eabi\include\c++\10.2.1\bits\basic_string.h **** 
  83:c:\gcc-arm-none-eabi-10-2020-q4-major-win32\gcc-arm-none-eabi-10-2020-q4-major\arm-none-eabi\include\c++\10.2.1\bits\basic_string.h ****       // Types:
  84:c:\gcc-arm-none-eabi-10-2020-q4-major-win32\gcc-arm-none-eabi-10-2020-q4-major\arm-none-eabi\include\c++\10.2.1\bits\basic_string.h ****     public:
  85:c:\gcc-arm-none-eabi-10-2020-q4-major-win32\gcc-arm-none-eabi-10-2020-q4-major\arm-none-eabi\include\c++\10.2.1\bits\basic_string.h ****       typedef _Traits					traits_type;
  86:c:\gcc-arm-none-eabi-10-2020-q4-major-win32\gcc-arm-none-eabi-10-2020-q4-major\arm-none-eabi\include\c++\10.2.1\bits\basic_string.h ****       typedef typename _Traits::char_type		value_type;
  87:c:\gcc-arm-none-eabi-10-2020-q4-major-win32\gcc-arm-none-eabi-10-2020-q4-major\arm-none-eabi\include\c++\10.2.1\bits\basic_string.h ****       typedef _Char_alloc_type				allocator_type;
  88:c:\gcc-arm-none-eabi-10-2020-q4-major-win32\gcc-arm-none-eabi-10-2020-q4-major\arm-none-eabi\include\c++\10.2.1\bits\basic_string.h ****       typedef typename _Alloc_traits::size_type		size_type;
  89:c:\gcc-arm-none-eabi-10-2020-q4-major-win32\gcc-arm-none-eabi-10-2020-q4-major\arm-none-eabi\include\c++\10.2.1\bits\basic_string.h ****       typedef typename _Alloc_traits::difference_type	difference_type;
  90:c:\gcc-arm-none-eabi-10-2020-q4-major-win32\gcc-arm-none-eabi-10-2020-q4-major\arm-none-eabi\include\c++\10.2.1\bits\basic_string.h ****       typedef typename _Alloc_traits::reference		reference;
  91:c:\gcc-arm-none-eabi-10-2020-q4-major-win32\gcc-arm-none-eabi-10-2020-q4-major\arm-none-eabi\include\c++\10.2.1\bits\basic_string.h ****       typedef typename _Alloc_traits::const_reference	const_reference;
  92:c:\gcc-arm-none-eabi-10-2020-q4-major-win32\gcc-arm-none-eabi-10-2020-q4-major\arm-none-eabi\include\c++\10.2.1\bits\basic_string.h ****       typedef typename _Alloc_traits::pointer		pointer;
  93:c:\gcc-arm-none-eabi-10-2020-q4-major-win32\gcc-arm-none-eabi-10-2020-q4-major\arm-none-eabi\include\c++\10.2.1\bits\basic_string.h ****       typedef typename _Alloc_traits::const_pointer	const_pointer;
  94:c:\gcc-arm-none-eabi-10-2020-q4-major-win32\gcc-arm-none-eabi-10-2020-q4-major\arm-none-eabi\include\c++\10.2.1\bits\basic_string.h ****       typedef __gnu_cxx::__normal_iterator<pointer, basic_string>  iterator;
  95:c:\gcc-arm-none-eabi-10-2020-q4-major-win32\gcc-arm-none-eabi-10-2020-q4-major\arm-none-eabi\include\c++\10.2.1\bits\basic_string.h ****       typedef __gnu_cxx::__normal_iterator<const_pointer, basic_string>
  96:c:\gcc-arm-none-eabi-10-2020-q4-major-win32\gcc-arm-none-eabi-10-2020-q4-major\arm-none-eabi\include\c++\10.2.1\bits\basic_string.h **** 							const_iterator;
  97:c:\gcc-arm-none-eabi-10-2020-q4-major-win32\gcc-arm-none-eabi-10-2020-q4-major\arm-none-eabi\include\c++\10.2.1\bits\basic_string.h ****       typedef std::reverse_iterator<const_iterator>	const_reverse_iterator;
  98:c:\gcc-arm-none-eabi-10-2020-q4-major-win32\gcc-arm-none-eabi-10-2020-q4-major\arm-none-eabi\include\c++\10.2.1\bits\basic_string.h ****       typedef std::reverse_iterator<iterator>		reverse_iterator;
  99:c:\gcc-arm-none-eabi-10-2020-q4-major-win32\gcc-arm-none-eabi-10-2020-q4-major\arm-none-eabi\include\c++\10.2.1\bits\basic_string.h **** 
 100:c:\gcc-arm-none-eabi-10-2020-q4-major-win32\gcc-arm-none-eabi-10-2020-q4-major\arm-none-eabi\include\c++\10.2.1\bits\basic_string.h ****       ///  Value returned by various member functions when they fail.
 101:c:\gcc-arm-none-eabi-10-2020-q4-major-win32\gcc-arm-none-eabi-10-2020-q4-major\arm-none-eabi\include\c++\10.2.1\bits\basic_string.h ****       static const size_type	npos = static_cast<size_type>(-1);
 102:c:\gcc-arm-none-eabi-10-2020-q4-major-win32\gcc-arm-none-eabi-10-2020-q4-major\arm-none-eabi\include\c++\10.2.1\bits\basic_string.h **** 
 103:c:\gcc-arm-none-eabi-10-2020-q4-major-win32\gcc-arm-none-eabi-10-2020-q4-major\arm-none-eabi\include\c++\10.2.1\bits\basic_string.h ****     protected:
 104:c:\gcc-arm-none-eabi-10-2020-q4-major-win32\gcc-arm-none-eabi-10-2020-q4-major\arm-none-eabi\include\c++\10.2.1\bits\basic_string.h ****       // type used for positions in insert, erase etc.
 105:c:\gcc-arm-none-eabi-10-2020-q4-major-win32\gcc-arm-none-eabi-10-2020-q4-major\arm-none-eabi\include\c++\10.2.1\bits\basic_string.h **** #if __cplusplus < 201103L
 106:c:\gcc-arm-none-eabi-10-2020-q4-major-win32\gcc-arm-none-eabi-10-2020-q4-major\arm-none-eabi\include\c++\10.2.1\bits\basic_string.h ****       typedef iterator __const_iterator;
 107:c:\gcc-arm-none-eabi-10-2020-q4-major-win32\gcc-arm-none-eabi-10-2020-q4-major\arm-none-eabi\include\c++\10.2.1\bits\basic_string.h **** #else
 108:c:\gcc-arm-none-eabi-10-2020-q4-major-win32\gcc-arm-none-eabi-10-2020-q4-major\arm-none-eabi\include\c++\10.2.1\bits\basic_string.h ****       typedef const_iterator __const_iterator;
 109:c:\gcc-arm-none-eabi-10-2020-q4-major-win32\gcc-arm-none-eabi-10-2020-q4-major\arm-none-eabi\include\c++\10.2.1\bits\basic_string.h **** #endif
 110:c:\gcc-arm-none-eabi-10-2020-q4-major-win32\gcc-arm-none-eabi-10-2020-q4-major\arm-none-eabi\include\c++\10.2.1\bits\basic_string.h **** 
 111:c:\gcc-arm-none-eabi-10-2020-q4-major-win32\gcc-arm-none-eabi-10-2020-q4-major\arm-none-eabi\include\c++\10.2.1\bits\basic_string.h ****     private:
 112:c:\gcc-arm-none-eabi-10-2020-q4-major-win32\gcc-arm-none-eabi-10-2020-q4-major\arm-none-eabi\include\c++\10.2.1\bits\basic_string.h **** #if __cplusplus >= 201703L
 113:c:\gcc-arm-none-eabi-10-2020-q4-major-win32\gcc-arm-none-eabi-10-2020-q4-major\arm-none-eabi\include\c++\10.2.1\bits\basic_string.h ****       // A helper type for avoiding boiler-plate.
 114:c:\gcc-arm-none-eabi-10-2020-q4-major-win32\gcc-arm-none-eabi-10-2020-q4-major\arm-none-eabi\include\c++\10.2.1\bits\basic_string.h ****       typedef basic_string_view<_CharT, _Traits> __sv_type;
 115:c:\gcc-arm-none-eabi-10-2020-q4-major-win32\gcc-arm-none-eabi-10-2020-q4-major\arm-none-eabi\include\c++\10.2.1\bits\basic_string.h **** 
 116:c:\gcc-arm-none-eabi-10-2020-q4-major-win32\gcc-arm-none-eabi-10-2020-q4-major\arm-none-eabi\include\c++\10.2.1\bits\basic_string.h ****       template<typename _Tp, typename _Res>
 117:c:\gcc-arm-none-eabi-10-2020-q4-major-win32\gcc-arm-none-eabi-10-2020-q4-major\arm-none-eabi\include\c++\10.2.1\bits\basic_string.h **** 	using _If_sv = enable_if_t<
 118:c:\gcc-arm-none-eabi-10-2020-q4-major-win32\gcc-arm-none-eabi-10-2020-q4-major\arm-none-eabi\include\c++\10.2.1\bits\basic_string.h **** 	  __and_<is_convertible<const _Tp&, __sv_type>,
 119:c:\gcc-arm-none-eabi-10-2020-q4-major-win32\gcc-arm-none-eabi-10-2020-q4-major\arm-none-eabi\include\c++\10.2.1\bits\basic_string.h **** 		 __not_<is_convertible<const _Tp*, const basic_string*>>,
 120:c:\gcc-arm-none-eabi-10-2020-q4-major-win32\gcc-arm-none-eabi-10-2020-q4-major\arm-none-eabi\include\c++\10.2.1\bits\basic_string.h **** 		 __not_<is_convertible<const _Tp&, const _CharT*>>>::value,
 121:c:\gcc-arm-none-eabi-10-2020-q4-major-win32\gcc-arm-none-eabi-10-2020-q4-major\arm-none-eabi\include\c++\10.2.1\bits\basic_string.h **** 	  _Res>;
 122:c:\gcc-arm-none-eabi-10-2020-q4-major-win32\gcc-arm-none-eabi-10-2020-q4-major\arm-none-eabi\include\c++\10.2.1\bits\basic_string.h **** 
 123:c:\gcc-arm-none-eabi-10-2020-q4-major-win32\gcc-arm-none-eabi-10-2020-q4-major\arm-none-eabi\include\c++\10.2.1\bits\basic_string.h ****       // Allows an implicit conversion to __sv_type.
 124:c:\gcc-arm-none-eabi-10-2020-q4-major-win32\gcc-arm-none-eabi-10-2020-q4-major\arm-none-eabi\include\c++\10.2.1\bits\basic_string.h ****       static __sv_type
 125:c:\gcc-arm-none-eabi-10-2020-q4-major-win32\gcc-arm-none-eabi-10-2020-q4-major\arm-none-eabi\include\c++\10.2.1\bits\basic_string.h ****       _S_to_string_view(__sv_type __svt) noexcept
 126:c:\gcc-arm-none-eabi-10-2020-q4-major-win32\gcc-arm-none-eabi-10-2020-q4-major\arm-none-eabi\include\c++\10.2.1\bits\basic_string.h ****       { return __svt; }
 127:c:\gcc-arm-none-eabi-10-2020-q4-major-win32\gcc-arm-none-eabi-10-2020-q4-major\arm-none-eabi\include\c++\10.2.1\bits\basic_string.h **** 
 128:c:\gcc-arm-none-eabi-10-2020-q4-major-win32\gcc-arm-none-eabi-10-2020-q4-major\arm-none-eabi\include\c++\10.2.1\bits\basic_string.h ****       // Wraps a string_view by explicit conversion and thus
 129:c:\gcc-arm-none-eabi-10-2020-q4-major-win32\gcc-arm-none-eabi-10-2020-q4-major\arm-none-eabi\include\c++\10.2.1\bits\basic_string.h ****       // allows to add an internal constructor that does not
 130:c:\gcc-arm-none-eabi-10-2020-q4-major-win32\gcc-arm-none-eabi-10-2020-q4-major\arm-none-eabi\include\c++\10.2.1\bits\basic_string.h ****       // participate in overload resolution when a string_view
ARM GAS  C:\Users\hoang\AppData\Local\Temp\ccNMsdI7.s 			page 9


 131:c:\gcc-arm-none-eabi-10-2020-q4-major-win32\gcc-arm-none-eabi-10-2020-q4-major\arm-none-eabi\include\c++\10.2.1\bits\basic_string.h ****       // is provided.
 132:c:\gcc-arm-none-eabi-10-2020-q4-major-win32\gcc-arm-none-eabi-10-2020-q4-major\arm-none-eabi\include\c++\10.2.1\bits\basic_string.h ****       struct __sv_wrapper
 133:c:\gcc-arm-none-eabi-10-2020-q4-major-win32\gcc-arm-none-eabi-10-2020-q4-major\arm-none-eabi\include\c++\10.2.1\bits\basic_string.h ****       {
 134:c:\gcc-arm-none-eabi-10-2020-q4-major-win32\gcc-arm-none-eabi-10-2020-q4-major\arm-none-eabi\include\c++\10.2.1\bits\basic_string.h **** 	explicit __sv_wrapper(__sv_type __sv) noexcept : _M_sv(__sv) { }
 135:c:\gcc-arm-none-eabi-10-2020-q4-major-win32\gcc-arm-none-eabi-10-2020-q4-major\arm-none-eabi\include\c++\10.2.1\bits\basic_string.h **** 	__sv_type _M_sv;
 136:c:\gcc-arm-none-eabi-10-2020-q4-major-win32\gcc-arm-none-eabi-10-2020-q4-major\arm-none-eabi\include\c++\10.2.1\bits\basic_string.h ****       };
 137:c:\gcc-arm-none-eabi-10-2020-q4-major-win32\gcc-arm-none-eabi-10-2020-q4-major\arm-none-eabi\include\c++\10.2.1\bits\basic_string.h **** 
 138:c:\gcc-arm-none-eabi-10-2020-q4-major-win32\gcc-arm-none-eabi-10-2020-q4-major\arm-none-eabi\include\c++\10.2.1\bits\basic_string.h ****       /**
 139:c:\gcc-arm-none-eabi-10-2020-q4-major-win32\gcc-arm-none-eabi-10-2020-q4-major\arm-none-eabi\include\c++\10.2.1\bits\basic_string.h ****        *  @brief  Only internally used: Construct string from a string view
 140:c:\gcc-arm-none-eabi-10-2020-q4-major-win32\gcc-arm-none-eabi-10-2020-q4-major\arm-none-eabi\include\c++\10.2.1\bits\basic_string.h ****        *          wrapper.
 141:c:\gcc-arm-none-eabi-10-2020-q4-major-win32\gcc-arm-none-eabi-10-2020-q4-major\arm-none-eabi\include\c++\10.2.1\bits\basic_string.h ****        *  @param  __svw  string view wrapper.
 142:c:\gcc-arm-none-eabi-10-2020-q4-major-win32\gcc-arm-none-eabi-10-2020-q4-major\arm-none-eabi\include\c++\10.2.1\bits\basic_string.h ****        *  @param  __a  Allocator to use.
 143:c:\gcc-arm-none-eabi-10-2020-q4-major-win32\gcc-arm-none-eabi-10-2020-q4-major\arm-none-eabi\include\c++\10.2.1\bits\basic_string.h ****        */
 144:c:\gcc-arm-none-eabi-10-2020-q4-major-win32\gcc-arm-none-eabi-10-2020-q4-major\arm-none-eabi\include\c++\10.2.1\bits\basic_string.h ****       explicit
 145:c:\gcc-arm-none-eabi-10-2020-q4-major-win32\gcc-arm-none-eabi-10-2020-q4-major\arm-none-eabi\include\c++\10.2.1\bits\basic_string.h ****       basic_string(__sv_wrapper __svw, const _Alloc& __a)
 146:c:\gcc-arm-none-eabi-10-2020-q4-major-win32\gcc-arm-none-eabi-10-2020-q4-major\arm-none-eabi\include\c++\10.2.1\bits\basic_string.h ****       : basic_string(__svw._M_sv.data(), __svw._M_sv.size(), __a) { }
 147:c:\gcc-arm-none-eabi-10-2020-q4-major-win32\gcc-arm-none-eabi-10-2020-q4-major\arm-none-eabi\include\c++\10.2.1\bits\basic_string.h **** #endif
 148:c:\gcc-arm-none-eabi-10-2020-q4-major-win32\gcc-arm-none-eabi-10-2020-q4-major\arm-none-eabi\include\c++\10.2.1\bits\basic_string.h **** 
 149:c:\gcc-arm-none-eabi-10-2020-q4-major-win32\gcc-arm-none-eabi-10-2020-q4-major\arm-none-eabi\include\c++\10.2.1\bits\basic_string.h ****       // Use empty-base optimization: http://www.cantrip.org/emptyopt.html
 150:c:\gcc-arm-none-eabi-10-2020-q4-major-win32\gcc-arm-none-eabi-10-2020-q4-major\arm-none-eabi\include\c++\10.2.1\bits\basic_string.h ****       struct _Alloc_hider : allocator_type // TODO check __is_final
 151:c:\gcc-arm-none-eabi-10-2020-q4-major-win32\gcc-arm-none-eabi-10-2020-q4-major\arm-none-eabi\include\c++\10.2.1\bits\basic_string.h ****       {
 152:c:\gcc-arm-none-eabi-10-2020-q4-major-win32\gcc-arm-none-eabi-10-2020-q4-major\arm-none-eabi\include\c++\10.2.1\bits\basic_string.h **** #if __cplusplus < 201103L
 153:c:\gcc-arm-none-eabi-10-2020-q4-major-win32\gcc-arm-none-eabi-10-2020-q4-major\arm-none-eabi\include\c++\10.2.1\bits\basic_string.h **** 	_Alloc_hider(pointer __dat, const _Alloc& __a = _Alloc())
 154:c:\gcc-arm-none-eabi-10-2020-q4-major-win32\gcc-arm-none-eabi-10-2020-q4-major\arm-none-eabi\include\c++\10.2.1\bits\basic_string.h **** 	: allocator_type(__a), _M_p(__dat) { }
 155:c:\gcc-arm-none-eabi-10-2020-q4-major-win32\gcc-arm-none-eabi-10-2020-q4-major\arm-none-eabi\include\c++\10.2.1\bits\basic_string.h **** #else
 156:c:\gcc-arm-none-eabi-10-2020-q4-major-win32\gcc-arm-none-eabi-10-2020-q4-major\arm-none-eabi\include\c++\10.2.1\bits\basic_string.h **** 	_Alloc_hider(pointer __dat, const _Alloc& __a)
 157:c:\gcc-arm-none-eabi-10-2020-q4-major-win32\gcc-arm-none-eabi-10-2020-q4-major\arm-none-eabi\include\c++\10.2.1\bits\basic_string.h **** 	: allocator_type(__a), _M_p(__dat) { }
 158:c:\gcc-arm-none-eabi-10-2020-q4-major-win32\gcc-arm-none-eabi-10-2020-q4-major\arm-none-eabi\include\c++\10.2.1\bits\basic_string.h **** 
 159:c:\gcc-arm-none-eabi-10-2020-q4-major-win32\gcc-arm-none-eabi-10-2020-q4-major\arm-none-eabi\include\c++\10.2.1\bits\basic_string.h **** 	_Alloc_hider(pointer __dat, _Alloc&& __a = _Alloc())
 160:c:\gcc-arm-none-eabi-10-2020-q4-major-win32\gcc-arm-none-eabi-10-2020-q4-major\arm-none-eabi\include\c++\10.2.1\bits\basic_string.h **** 	: allocator_type(std::move(__a)), _M_p(__dat) { }
 161:c:\gcc-arm-none-eabi-10-2020-q4-major-win32\gcc-arm-none-eabi-10-2020-q4-major\arm-none-eabi\include\c++\10.2.1\bits\basic_string.h **** #endif
 162:c:\gcc-arm-none-eabi-10-2020-q4-major-win32\gcc-arm-none-eabi-10-2020-q4-major\arm-none-eabi\include\c++\10.2.1\bits\basic_string.h **** 
 163:c:\gcc-arm-none-eabi-10-2020-q4-major-win32\gcc-arm-none-eabi-10-2020-q4-major\arm-none-eabi\include\c++\10.2.1\bits\basic_string.h **** 	pointer _M_p; // The actual data.
 164:c:\gcc-arm-none-eabi-10-2020-q4-major-win32\gcc-arm-none-eabi-10-2020-q4-major\arm-none-eabi\include\c++\10.2.1\bits\basic_string.h ****       };
 165:c:\gcc-arm-none-eabi-10-2020-q4-major-win32\gcc-arm-none-eabi-10-2020-q4-major\arm-none-eabi\include\c++\10.2.1\bits\basic_string.h **** 
 166:c:\gcc-arm-none-eabi-10-2020-q4-major-win32\gcc-arm-none-eabi-10-2020-q4-major\arm-none-eabi\include\c++\10.2.1\bits\basic_string.h ****       _Alloc_hider	_M_dataplus;
 167:c:\gcc-arm-none-eabi-10-2020-q4-major-win32\gcc-arm-none-eabi-10-2020-q4-major\arm-none-eabi\include\c++\10.2.1\bits\basic_string.h ****       size_type		_M_string_length;
 168:c:\gcc-arm-none-eabi-10-2020-q4-major-win32\gcc-arm-none-eabi-10-2020-q4-major\arm-none-eabi\include\c++\10.2.1\bits\basic_string.h **** 
 169:c:\gcc-arm-none-eabi-10-2020-q4-major-win32\gcc-arm-none-eabi-10-2020-q4-major\arm-none-eabi\include\c++\10.2.1\bits\basic_string.h ****       enum { _S_local_capacity = 15 / sizeof(_CharT) };
 170:c:\gcc-arm-none-eabi-10-2020-q4-major-win32\gcc-arm-none-eabi-10-2020-q4-major\arm-none-eabi\include\c++\10.2.1\bits\basic_string.h **** 
 171:c:\gcc-arm-none-eabi-10-2020-q4-major-win32\gcc-arm-none-eabi-10-2020-q4-major\arm-none-eabi\include\c++\10.2.1\bits\basic_string.h ****       union
 172:c:\gcc-arm-none-eabi-10-2020-q4-major-win32\gcc-arm-none-eabi-10-2020-q4-major\arm-none-eabi\include\c++\10.2.1\bits\basic_string.h ****       {
 173:c:\gcc-arm-none-eabi-10-2020-q4-major-win32\gcc-arm-none-eabi-10-2020-q4-major\arm-none-eabi\include\c++\10.2.1\bits\basic_string.h **** 	_CharT           _M_local_buf[_S_local_capacity + 1];
 174:c:\gcc-arm-none-eabi-10-2020-q4-major-win32\gcc-arm-none-eabi-10-2020-q4-major\arm-none-eabi\include\c++\10.2.1\bits\basic_string.h **** 	size_type        _M_allocated_capacity;
 175:c:\gcc-arm-none-eabi-10-2020-q4-major-win32\gcc-arm-none-eabi-10-2020-q4-major\arm-none-eabi\include\c++\10.2.1\bits\basic_string.h ****       };
 176:c:\gcc-arm-none-eabi-10-2020-q4-major-win32\gcc-arm-none-eabi-10-2020-q4-major\arm-none-eabi\include\c++\10.2.1\bits\basic_string.h **** 
 177:c:\gcc-arm-none-eabi-10-2020-q4-major-win32\gcc-arm-none-eabi-10-2020-q4-major\arm-none-eabi\include\c++\10.2.1\bits\basic_string.h ****       void
 178:c:\gcc-arm-none-eabi-10-2020-q4-major-win32\gcc-arm-none-eabi-10-2020-q4-major\arm-none-eabi\include\c++\10.2.1\bits\basic_string.h ****       _M_data(pointer __p)
 179:c:\gcc-arm-none-eabi-10-2020-q4-major-win32\gcc-arm-none-eabi-10-2020-q4-major\arm-none-eabi\include\c++\10.2.1\bits\basic_string.h ****       { _M_dataplus._M_p = __p; }
 180:c:\gcc-arm-none-eabi-10-2020-q4-major-win32\gcc-arm-none-eabi-10-2020-q4-major\arm-none-eabi\include\c++\10.2.1\bits\basic_string.h **** 
 181:c:\gcc-arm-none-eabi-10-2020-q4-major-win32\gcc-arm-none-eabi-10-2020-q4-major\arm-none-eabi\include\c++\10.2.1\bits\basic_string.h ****       void
 182:c:\gcc-arm-none-eabi-10-2020-q4-major-win32\gcc-arm-none-eabi-10-2020-q4-major\arm-none-eabi\include\c++\10.2.1\bits\basic_string.h ****       _M_length(size_type __length)
 183:c:\gcc-arm-none-eabi-10-2020-q4-major-win32\gcc-arm-none-eabi-10-2020-q4-major\arm-none-eabi\include\c++\10.2.1\bits\basic_string.h ****       { _M_string_length = __length; }
 184:c:\gcc-arm-none-eabi-10-2020-q4-major-win32\gcc-arm-none-eabi-10-2020-q4-major\arm-none-eabi\include\c++\10.2.1\bits\basic_string.h **** 
 185:c:\gcc-arm-none-eabi-10-2020-q4-major-win32\gcc-arm-none-eabi-10-2020-q4-major\arm-none-eabi\include\c++\10.2.1\bits\basic_string.h ****       pointer
 186:c:\gcc-arm-none-eabi-10-2020-q4-major-win32\gcc-arm-none-eabi-10-2020-q4-major\arm-none-eabi\include\c++\10.2.1\bits\basic_string.h ****       _M_data() const
 187:c:\gcc-arm-none-eabi-10-2020-q4-major-win32\gcc-arm-none-eabi-10-2020-q4-major\arm-none-eabi\include\c++\10.2.1\bits\basic_string.h ****       { return _M_dataplus._M_p; }
ARM GAS  C:\Users\hoang\AppData\Local\Temp\ccNMsdI7.s 			page 10


 188:c:\gcc-arm-none-eabi-10-2020-q4-major-win32\gcc-arm-none-eabi-10-2020-q4-major\arm-none-eabi\include\c++\10.2.1\bits\basic_string.h **** 
 189:c:\gcc-arm-none-eabi-10-2020-q4-major-win32\gcc-arm-none-eabi-10-2020-q4-major\arm-none-eabi\include\c++\10.2.1\bits\basic_string.h ****       pointer
 190:c:\gcc-arm-none-eabi-10-2020-q4-major-win32\gcc-arm-none-eabi-10-2020-q4-major\arm-none-eabi\include\c++\10.2.1\bits\basic_string.h ****       _M_local_data()
 191:c:\gcc-arm-none-eabi-10-2020-q4-major-win32\gcc-arm-none-eabi-10-2020-q4-major\arm-none-eabi\include\c++\10.2.1\bits\basic_string.h ****       {
 192:c:\gcc-arm-none-eabi-10-2020-q4-major-win32\gcc-arm-none-eabi-10-2020-q4-major\arm-none-eabi\include\c++\10.2.1\bits\basic_string.h **** #if __cplusplus >= 201103L
 193:c:\gcc-arm-none-eabi-10-2020-q4-major-win32\gcc-arm-none-eabi-10-2020-q4-major\arm-none-eabi\include\c++\10.2.1\bits\basic_string.h **** 	return std::pointer_traits<pointer>::pointer_to(*_M_local_buf);
 194:c:\gcc-arm-none-eabi-10-2020-q4-major-win32\gcc-arm-none-eabi-10-2020-q4-major\arm-none-eabi\include\c++\10.2.1\bits\basic_string.h **** #else
 195:c:\gcc-arm-none-eabi-10-2020-q4-major-win32\gcc-arm-none-eabi-10-2020-q4-major\arm-none-eabi\include\c++\10.2.1\bits\basic_string.h **** 	return pointer(_M_local_buf);
 196:c:\gcc-arm-none-eabi-10-2020-q4-major-win32\gcc-arm-none-eabi-10-2020-q4-major\arm-none-eabi\include\c++\10.2.1\bits\basic_string.h **** #endif
 197:c:\gcc-arm-none-eabi-10-2020-q4-major-win32\gcc-arm-none-eabi-10-2020-q4-major\arm-none-eabi\include\c++\10.2.1\bits\basic_string.h ****       }
 198:c:\gcc-arm-none-eabi-10-2020-q4-major-win32\gcc-arm-none-eabi-10-2020-q4-major\arm-none-eabi\include\c++\10.2.1\bits\basic_string.h **** 
 199:c:\gcc-arm-none-eabi-10-2020-q4-major-win32\gcc-arm-none-eabi-10-2020-q4-major\arm-none-eabi\include\c++\10.2.1\bits\basic_string.h ****       const_pointer
 200:c:\gcc-arm-none-eabi-10-2020-q4-major-win32\gcc-arm-none-eabi-10-2020-q4-major\arm-none-eabi\include\c++\10.2.1\bits\basic_string.h ****       _M_local_data() const
 201:c:\gcc-arm-none-eabi-10-2020-q4-major-win32\gcc-arm-none-eabi-10-2020-q4-major\arm-none-eabi\include\c++\10.2.1\bits\basic_string.h ****       {
 202:c:\gcc-arm-none-eabi-10-2020-q4-major-win32\gcc-arm-none-eabi-10-2020-q4-major\arm-none-eabi\include\c++\10.2.1\bits\basic_string.h **** #if __cplusplus >= 201103L
 203:c:\gcc-arm-none-eabi-10-2020-q4-major-win32\gcc-arm-none-eabi-10-2020-q4-major\arm-none-eabi\include\c++\10.2.1\bits\basic_string.h **** 	return std::pointer_traits<const_pointer>::pointer_to(*_M_local_buf);
 204:c:\gcc-arm-none-eabi-10-2020-q4-major-win32\gcc-arm-none-eabi-10-2020-q4-major\arm-none-eabi\include\c++\10.2.1\bits\basic_string.h **** #else
 205:c:\gcc-arm-none-eabi-10-2020-q4-major-win32\gcc-arm-none-eabi-10-2020-q4-major\arm-none-eabi\include\c++\10.2.1\bits\basic_string.h **** 	return const_pointer(_M_local_buf);
 206:c:\gcc-arm-none-eabi-10-2020-q4-major-win32\gcc-arm-none-eabi-10-2020-q4-major\arm-none-eabi\include\c++\10.2.1\bits\basic_string.h **** #endif
 207:c:\gcc-arm-none-eabi-10-2020-q4-major-win32\gcc-arm-none-eabi-10-2020-q4-major\arm-none-eabi\include\c++\10.2.1\bits\basic_string.h ****       }
 208:c:\gcc-arm-none-eabi-10-2020-q4-major-win32\gcc-arm-none-eabi-10-2020-q4-major\arm-none-eabi\include\c++\10.2.1\bits\basic_string.h **** 
 209:c:\gcc-arm-none-eabi-10-2020-q4-major-win32\gcc-arm-none-eabi-10-2020-q4-major\arm-none-eabi\include\c++\10.2.1\bits\basic_string.h ****       void
 210:c:\gcc-arm-none-eabi-10-2020-q4-major-win32\gcc-arm-none-eabi-10-2020-q4-major\arm-none-eabi\include\c++\10.2.1\bits\basic_string.h ****       _M_capacity(size_type __capacity)
 211:c:\gcc-arm-none-eabi-10-2020-q4-major-win32\gcc-arm-none-eabi-10-2020-q4-major\arm-none-eabi\include\c++\10.2.1\bits\basic_string.h ****       { _M_allocated_capacity = __capacity; }
 212:c:\gcc-arm-none-eabi-10-2020-q4-major-win32\gcc-arm-none-eabi-10-2020-q4-major\arm-none-eabi\include\c++\10.2.1\bits\basic_string.h **** 
 213:c:\gcc-arm-none-eabi-10-2020-q4-major-win32\gcc-arm-none-eabi-10-2020-q4-major\arm-none-eabi\include\c++\10.2.1\bits\basic_string.h ****       void
 214:c:\gcc-arm-none-eabi-10-2020-q4-major-win32\gcc-arm-none-eabi-10-2020-q4-major\arm-none-eabi\include\c++\10.2.1\bits\basic_string.h ****       _M_set_length(size_type __n)
 215:c:\gcc-arm-none-eabi-10-2020-q4-major-win32\gcc-arm-none-eabi-10-2020-q4-major\arm-none-eabi\include\c++\10.2.1\bits\basic_string.h ****       {
 216:c:\gcc-arm-none-eabi-10-2020-q4-major-win32\gcc-arm-none-eabi-10-2020-q4-major\arm-none-eabi\include\c++\10.2.1\bits\basic_string.h **** 	_M_length(__n);
 217:c:\gcc-arm-none-eabi-10-2020-q4-major-win32\gcc-arm-none-eabi-10-2020-q4-major\arm-none-eabi\include\c++\10.2.1\bits\basic_string.h **** 	traits_type::assign(_M_data()[__n], _CharT());
 218:c:\gcc-arm-none-eabi-10-2020-q4-major-win32\gcc-arm-none-eabi-10-2020-q4-major\arm-none-eabi\include\c++\10.2.1\bits\basic_string.h ****       }
 219:c:\gcc-arm-none-eabi-10-2020-q4-major-win32\gcc-arm-none-eabi-10-2020-q4-major\arm-none-eabi\include\c++\10.2.1\bits\basic_string.h **** 
 220:c:\gcc-arm-none-eabi-10-2020-q4-major-win32\gcc-arm-none-eabi-10-2020-q4-major\arm-none-eabi\include\c++\10.2.1\bits\basic_string.h ****       bool
 221:c:\gcc-arm-none-eabi-10-2020-q4-major-win32\gcc-arm-none-eabi-10-2020-q4-major\arm-none-eabi\include\c++\10.2.1\bits\basic_string.h ****       _M_is_local() const
 222:c:\gcc-arm-none-eabi-10-2020-q4-major-win32\gcc-arm-none-eabi-10-2020-q4-major\arm-none-eabi\include\c++\10.2.1\bits\basic_string.h ****       { return _M_data() == _M_local_data(); }
 223:c:\gcc-arm-none-eabi-10-2020-q4-major-win32\gcc-arm-none-eabi-10-2020-q4-major\arm-none-eabi\include\c++\10.2.1\bits\basic_string.h **** 
 224:c:\gcc-arm-none-eabi-10-2020-q4-major-win32\gcc-arm-none-eabi-10-2020-q4-major\arm-none-eabi\include\c++\10.2.1\bits\basic_string.h ****       // Create & Destroy
 225:c:\gcc-arm-none-eabi-10-2020-q4-major-win32\gcc-arm-none-eabi-10-2020-q4-major\arm-none-eabi\include\c++\10.2.1\bits\basic_string.h ****       pointer
 226:c:\gcc-arm-none-eabi-10-2020-q4-major-win32\gcc-arm-none-eabi-10-2020-q4-major\arm-none-eabi\include\c++\10.2.1\bits\basic_string.h ****       _M_create(size_type&, size_type);
 227:c:\gcc-arm-none-eabi-10-2020-q4-major-win32\gcc-arm-none-eabi-10-2020-q4-major\arm-none-eabi\include\c++\10.2.1\bits\basic_string.h **** 
 228:c:\gcc-arm-none-eabi-10-2020-q4-major-win32\gcc-arm-none-eabi-10-2020-q4-major\arm-none-eabi\include\c++\10.2.1\bits\basic_string.h ****       void
 229:c:\gcc-arm-none-eabi-10-2020-q4-major-win32\gcc-arm-none-eabi-10-2020-q4-major\arm-none-eabi\include\c++\10.2.1\bits\basic_string.h ****       _M_dispose()
 230:c:\gcc-arm-none-eabi-10-2020-q4-major-win32\gcc-arm-none-eabi-10-2020-q4-major\arm-none-eabi\include\c++\10.2.1\bits\basic_string.h ****       {
 231:c:\gcc-arm-none-eabi-10-2020-q4-major-win32\gcc-arm-none-eabi-10-2020-q4-major\arm-none-eabi\include\c++\10.2.1\bits\basic_string.h **** 	if (!_M_is_local())
 232:c:\gcc-arm-none-eabi-10-2020-q4-major-win32\gcc-arm-none-eabi-10-2020-q4-major\arm-none-eabi\include\c++\10.2.1\bits\basic_string.h **** 	  _M_destroy(_M_allocated_capacity);
 233:c:\gcc-arm-none-eabi-10-2020-q4-major-win32\gcc-arm-none-eabi-10-2020-q4-major\arm-none-eabi\include\c++\10.2.1\bits\basic_string.h ****       }
 234:c:\gcc-arm-none-eabi-10-2020-q4-major-win32\gcc-arm-none-eabi-10-2020-q4-major\arm-none-eabi\include\c++\10.2.1\bits\basic_string.h **** 
 235:c:\gcc-arm-none-eabi-10-2020-q4-major-win32\gcc-arm-none-eabi-10-2020-q4-major\arm-none-eabi\include\c++\10.2.1\bits\basic_string.h ****       void
 236:c:\gcc-arm-none-eabi-10-2020-q4-major-win32\gcc-arm-none-eabi-10-2020-q4-major\arm-none-eabi\include\c++\10.2.1\bits\basic_string.h ****       _M_destroy(size_type __size) throw()
 237:c:\gcc-arm-none-eabi-10-2020-q4-major-win32\gcc-arm-none-eabi-10-2020-q4-major\arm-none-eabi\include\c++\10.2.1\bits\basic_string.h ****       { _Alloc_traits::deallocate(_M_get_allocator(), _M_data(), __size + 1); }
 238:c:\gcc-arm-none-eabi-10-2020-q4-major-win32\gcc-arm-none-eabi-10-2020-q4-major\arm-none-eabi\include\c++\10.2.1\bits\basic_string.h **** 
 239:c:\gcc-arm-none-eabi-10-2020-q4-major-win32\gcc-arm-none-eabi-10-2020-q4-major\arm-none-eabi\include\c++\10.2.1\bits\basic_string.h ****       // _M_construct_aux is used to implement the 21.3.1 para 15 which
 240:c:\gcc-arm-none-eabi-10-2020-q4-major-win32\gcc-arm-none-eabi-10-2020-q4-major\arm-none-eabi\include\c++\10.2.1\bits\basic_string.h ****       // requires special behaviour if _InIterator is an integral type
 241:c:\gcc-arm-none-eabi-10-2020-q4-major-win32\gcc-arm-none-eabi-10-2020-q4-major\arm-none-eabi\include\c++\10.2.1\bits\basic_string.h ****       template<typename _InIterator>
 242:c:\gcc-arm-none-eabi-10-2020-q4-major-win32\gcc-arm-none-eabi-10-2020-q4-major\arm-none-eabi\include\c++\10.2.1\bits\basic_string.h ****         void
 243:c:\gcc-arm-none-eabi-10-2020-q4-major-win32\gcc-arm-none-eabi-10-2020-q4-major\arm-none-eabi\include\c++\10.2.1\bits\basic_string.h ****         _M_construct_aux(_InIterator __beg, _InIterator __end,
 244:c:\gcc-arm-none-eabi-10-2020-q4-major-win32\gcc-arm-none-eabi-10-2020-q4-major\arm-none-eabi\include\c++\10.2.1\bits\basic_string.h **** 			 std::__false_type)
ARM GAS  C:\Users\hoang\AppData\Local\Temp\ccNMsdI7.s 			page 11


 245:c:\gcc-arm-none-eabi-10-2020-q4-major-win32\gcc-arm-none-eabi-10-2020-q4-major\arm-none-eabi\include\c++\10.2.1\bits\basic_string.h **** 	{
 246:c:\gcc-arm-none-eabi-10-2020-q4-major-win32\gcc-arm-none-eabi-10-2020-q4-major\arm-none-eabi\include\c++\10.2.1\bits\basic_string.h ****           typedef typename iterator_traits<_InIterator>::iterator_category _Tag;
 247:c:\gcc-arm-none-eabi-10-2020-q4-major-win32\gcc-arm-none-eabi-10-2020-q4-major\arm-none-eabi\include\c++\10.2.1\bits\basic_string.h ****           _M_construct(__beg, __end, _Tag());
 248:c:\gcc-arm-none-eabi-10-2020-q4-major-win32\gcc-arm-none-eabi-10-2020-q4-major\arm-none-eabi\include\c++\10.2.1\bits\basic_string.h **** 	}
 249:c:\gcc-arm-none-eabi-10-2020-q4-major-win32\gcc-arm-none-eabi-10-2020-q4-major\arm-none-eabi\include\c++\10.2.1\bits\basic_string.h **** 
 250:c:\gcc-arm-none-eabi-10-2020-q4-major-win32\gcc-arm-none-eabi-10-2020-q4-major\arm-none-eabi\include\c++\10.2.1\bits\basic_string.h ****       // _GLIBCXX_RESOLVE_LIB_DEFECTS
 251:c:\gcc-arm-none-eabi-10-2020-q4-major-win32\gcc-arm-none-eabi-10-2020-q4-major\arm-none-eabi\include\c++\10.2.1\bits\basic_string.h ****       // 438. Ambiguity in the "do the right thing" clause
 252:c:\gcc-arm-none-eabi-10-2020-q4-major-win32\gcc-arm-none-eabi-10-2020-q4-major\arm-none-eabi\include\c++\10.2.1\bits\basic_string.h ****       template<typename _Integer>
 253:c:\gcc-arm-none-eabi-10-2020-q4-major-win32\gcc-arm-none-eabi-10-2020-q4-major\arm-none-eabi\include\c++\10.2.1\bits\basic_string.h ****         void
 254:c:\gcc-arm-none-eabi-10-2020-q4-major-win32\gcc-arm-none-eabi-10-2020-q4-major\arm-none-eabi\include\c++\10.2.1\bits\basic_string.h ****         _M_construct_aux(_Integer __beg, _Integer __end, std::__true_type)
 255:c:\gcc-arm-none-eabi-10-2020-q4-major-win32\gcc-arm-none-eabi-10-2020-q4-major\arm-none-eabi\include\c++\10.2.1\bits\basic_string.h **** 	{ _M_construct_aux_2(static_cast<size_type>(__beg), __end); }
 256:c:\gcc-arm-none-eabi-10-2020-q4-major-win32\gcc-arm-none-eabi-10-2020-q4-major\arm-none-eabi\include\c++\10.2.1\bits\basic_string.h **** 
 257:c:\gcc-arm-none-eabi-10-2020-q4-major-win32\gcc-arm-none-eabi-10-2020-q4-major\arm-none-eabi\include\c++\10.2.1\bits\basic_string.h ****       void
 258:c:\gcc-arm-none-eabi-10-2020-q4-major-win32\gcc-arm-none-eabi-10-2020-q4-major\arm-none-eabi\include\c++\10.2.1\bits\basic_string.h ****       _M_construct_aux_2(size_type __req, _CharT __c)
 259:c:\gcc-arm-none-eabi-10-2020-q4-major-win32\gcc-arm-none-eabi-10-2020-q4-major\arm-none-eabi\include\c++\10.2.1\bits\basic_string.h ****       { _M_construct(__req, __c); }
 260:c:\gcc-arm-none-eabi-10-2020-q4-major-win32\gcc-arm-none-eabi-10-2020-q4-major\arm-none-eabi\include\c++\10.2.1\bits\basic_string.h **** 
 261:c:\gcc-arm-none-eabi-10-2020-q4-major-win32\gcc-arm-none-eabi-10-2020-q4-major\arm-none-eabi\include\c++\10.2.1\bits\basic_string.h ****       template<typename _InIterator>
 262:c:\gcc-arm-none-eabi-10-2020-q4-major-win32\gcc-arm-none-eabi-10-2020-q4-major\arm-none-eabi\include\c++\10.2.1\bits\basic_string.h ****         void
 263:c:\gcc-arm-none-eabi-10-2020-q4-major-win32\gcc-arm-none-eabi-10-2020-q4-major\arm-none-eabi\include\c++\10.2.1\bits\basic_string.h ****         _M_construct(_InIterator __beg, _InIterator __end)
 264:c:\gcc-arm-none-eabi-10-2020-q4-major-win32\gcc-arm-none-eabi-10-2020-q4-major\arm-none-eabi\include\c++\10.2.1\bits\basic_string.h **** 	{
 265:c:\gcc-arm-none-eabi-10-2020-q4-major-win32\gcc-arm-none-eabi-10-2020-q4-major\arm-none-eabi\include\c++\10.2.1\bits\basic_string.h **** 	  typedef typename std::__is_integer<_InIterator>::__type _Integral;
 266:c:\gcc-arm-none-eabi-10-2020-q4-major-win32\gcc-arm-none-eabi-10-2020-q4-major\arm-none-eabi\include\c++\10.2.1\bits\basic_string.h **** 	  _M_construct_aux(__beg, __end, _Integral());
 267:c:\gcc-arm-none-eabi-10-2020-q4-major-win32\gcc-arm-none-eabi-10-2020-q4-major\arm-none-eabi\include\c++\10.2.1\bits\basic_string.h ****         }
 268:c:\gcc-arm-none-eabi-10-2020-q4-major-win32\gcc-arm-none-eabi-10-2020-q4-major\arm-none-eabi\include\c++\10.2.1\bits\basic_string.h **** 
 269:c:\gcc-arm-none-eabi-10-2020-q4-major-win32\gcc-arm-none-eabi-10-2020-q4-major\arm-none-eabi\include\c++\10.2.1\bits\basic_string.h ****       // For Input Iterators, used in istreambuf_iterators, etc.
 270:c:\gcc-arm-none-eabi-10-2020-q4-major-win32\gcc-arm-none-eabi-10-2020-q4-major\arm-none-eabi\include\c++\10.2.1\bits\basic_string.h ****       template<typename _InIterator>
 271:c:\gcc-arm-none-eabi-10-2020-q4-major-win32\gcc-arm-none-eabi-10-2020-q4-major\arm-none-eabi\include\c++\10.2.1\bits\basic_string.h ****         void
 272:c:\gcc-arm-none-eabi-10-2020-q4-major-win32\gcc-arm-none-eabi-10-2020-q4-major\arm-none-eabi\include\c++\10.2.1\bits\basic_string.h ****         _M_construct(_InIterator __beg, _InIterator __end,
 273:c:\gcc-arm-none-eabi-10-2020-q4-major-win32\gcc-arm-none-eabi-10-2020-q4-major\arm-none-eabi\include\c++\10.2.1\bits\basic_string.h **** 		     std::input_iterator_tag);
 274:c:\gcc-arm-none-eabi-10-2020-q4-major-win32\gcc-arm-none-eabi-10-2020-q4-major\arm-none-eabi\include\c++\10.2.1\bits\basic_string.h **** 
 275:c:\gcc-arm-none-eabi-10-2020-q4-major-win32\gcc-arm-none-eabi-10-2020-q4-major\arm-none-eabi\include\c++\10.2.1\bits\basic_string.h ****       // For forward_iterators up to random_access_iterators, used for
 276:c:\gcc-arm-none-eabi-10-2020-q4-major-win32\gcc-arm-none-eabi-10-2020-q4-major\arm-none-eabi\include\c++\10.2.1\bits\basic_string.h ****       // string::iterator, _CharT*, etc.
 277:c:\gcc-arm-none-eabi-10-2020-q4-major-win32\gcc-arm-none-eabi-10-2020-q4-major\arm-none-eabi\include\c++\10.2.1\bits\basic_string.h ****       template<typename _FwdIterator>
 278:c:\gcc-arm-none-eabi-10-2020-q4-major-win32\gcc-arm-none-eabi-10-2020-q4-major\arm-none-eabi\include\c++\10.2.1\bits\basic_string.h ****         void
 279:c:\gcc-arm-none-eabi-10-2020-q4-major-win32\gcc-arm-none-eabi-10-2020-q4-major\arm-none-eabi\include\c++\10.2.1\bits\basic_string.h ****         _M_construct(_FwdIterator __beg, _FwdIterator __end,
 280:c:\gcc-arm-none-eabi-10-2020-q4-major-win32\gcc-arm-none-eabi-10-2020-q4-major\arm-none-eabi\include\c++\10.2.1\bits\basic_string.h **** 		     std::forward_iterator_tag);
 281:c:\gcc-arm-none-eabi-10-2020-q4-major-win32\gcc-arm-none-eabi-10-2020-q4-major\arm-none-eabi\include\c++\10.2.1\bits\basic_string.h **** 
 282:c:\gcc-arm-none-eabi-10-2020-q4-major-win32\gcc-arm-none-eabi-10-2020-q4-major\arm-none-eabi\include\c++\10.2.1\bits\basic_string.h ****       void
 283:c:\gcc-arm-none-eabi-10-2020-q4-major-win32\gcc-arm-none-eabi-10-2020-q4-major\arm-none-eabi\include\c++\10.2.1\bits\basic_string.h ****       _M_construct(size_type __req, _CharT __c);
 284:c:\gcc-arm-none-eabi-10-2020-q4-major-win32\gcc-arm-none-eabi-10-2020-q4-major\arm-none-eabi\include\c++\10.2.1\bits\basic_string.h **** 
 285:c:\gcc-arm-none-eabi-10-2020-q4-major-win32\gcc-arm-none-eabi-10-2020-q4-major\arm-none-eabi\include\c++\10.2.1\bits\basic_string.h ****       allocator_type&
 286:c:\gcc-arm-none-eabi-10-2020-q4-major-win32\gcc-arm-none-eabi-10-2020-q4-major\arm-none-eabi\include\c++\10.2.1\bits\basic_string.h ****       _M_get_allocator()
 287:c:\gcc-arm-none-eabi-10-2020-q4-major-win32\gcc-arm-none-eabi-10-2020-q4-major\arm-none-eabi\include\c++\10.2.1\bits\basic_string.h ****       { return _M_dataplus; }
 288:c:\gcc-arm-none-eabi-10-2020-q4-major-win32\gcc-arm-none-eabi-10-2020-q4-major\arm-none-eabi\include\c++\10.2.1\bits\basic_string.h **** 
 289:c:\gcc-arm-none-eabi-10-2020-q4-major-win32\gcc-arm-none-eabi-10-2020-q4-major\arm-none-eabi\include\c++\10.2.1\bits\basic_string.h ****       const allocator_type&
 290:c:\gcc-arm-none-eabi-10-2020-q4-major-win32\gcc-arm-none-eabi-10-2020-q4-major\arm-none-eabi\include\c++\10.2.1\bits\basic_string.h ****       _M_get_allocator() const
 291:c:\gcc-arm-none-eabi-10-2020-q4-major-win32\gcc-arm-none-eabi-10-2020-q4-major\arm-none-eabi\include\c++\10.2.1\bits\basic_string.h ****       { return _M_dataplus; }
 292:c:\gcc-arm-none-eabi-10-2020-q4-major-win32\gcc-arm-none-eabi-10-2020-q4-major\arm-none-eabi\include\c++\10.2.1\bits\basic_string.h **** 
 293:c:\gcc-arm-none-eabi-10-2020-q4-major-win32\gcc-arm-none-eabi-10-2020-q4-major\arm-none-eabi\include\c++\10.2.1\bits\basic_string.h ****     private:
 294:c:\gcc-arm-none-eabi-10-2020-q4-major-win32\gcc-arm-none-eabi-10-2020-q4-major\arm-none-eabi\include\c++\10.2.1\bits\basic_string.h **** 
 295:c:\gcc-arm-none-eabi-10-2020-q4-major-win32\gcc-arm-none-eabi-10-2020-q4-major\arm-none-eabi\include\c++\10.2.1\bits\basic_string.h **** #ifdef _GLIBCXX_DISAMBIGUATE_REPLACE_INST
 296:c:\gcc-arm-none-eabi-10-2020-q4-major-win32\gcc-arm-none-eabi-10-2020-q4-major\arm-none-eabi\include\c++\10.2.1\bits\basic_string.h ****       // The explicit instantiations in misc-inst.cc require this due to
 297:c:\gcc-arm-none-eabi-10-2020-q4-major-win32\gcc-arm-none-eabi-10-2020-q4-major\arm-none-eabi\include\c++\10.2.1\bits\basic_string.h ****       // https://gcc.gnu.org/bugzilla/show_bug.cgi?id=64063
 298:c:\gcc-arm-none-eabi-10-2020-q4-major-win32\gcc-arm-none-eabi-10-2020-q4-major\arm-none-eabi\include\c++\10.2.1\bits\basic_string.h ****       template<typename _Tp, bool _Requires =
 299:c:\gcc-arm-none-eabi-10-2020-q4-major-win32\gcc-arm-none-eabi-10-2020-q4-major\arm-none-eabi\include\c++\10.2.1\bits\basic_string.h **** 	       !__are_same<_Tp, _CharT*>::__value
 300:c:\gcc-arm-none-eabi-10-2020-q4-major-win32\gcc-arm-none-eabi-10-2020-q4-major\arm-none-eabi\include\c++\10.2.1\bits\basic_string.h **** 	       && !__are_same<_Tp, const _CharT*>::__value
 301:c:\gcc-arm-none-eabi-10-2020-q4-major-win32\gcc-arm-none-eabi-10-2020-q4-major\arm-none-eabi\include\c++\10.2.1\bits\basic_string.h **** 	       && !__are_same<_Tp, iterator>::__value
ARM GAS  C:\Users\hoang\AppData\Local\Temp\ccNMsdI7.s 			page 12


 302:c:\gcc-arm-none-eabi-10-2020-q4-major-win32\gcc-arm-none-eabi-10-2020-q4-major\arm-none-eabi\include\c++\10.2.1\bits\basic_string.h **** 	       && !__are_same<_Tp, const_iterator>::__value>
 303:c:\gcc-arm-none-eabi-10-2020-q4-major-win32\gcc-arm-none-eabi-10-2020-q4-major\arm-none-eabi\include\c++\10.2.1\bits\basic_string.h **** 	struct __enable_if_not_native_iterator
 304:c:\gcc-arm-none-eabi-10-2020-q4-major-win32\gcc-arm-none-eabi-10-2020-q4-major\arm-none-eabi\include\c++\10.2.1\bits\basic_string.h **** 	{ typedef basic_string& __type; };
 305:c:\gcc-arm-none-eabi-10-2020-q4-major-win32\gcc-arm-none-eabi-10-2020-q4-major\arm-none-eabi\include\c++\10.2.1\bits\basic_string.h ****       template<typename _Tp>
 306:c:\gcc-arm-none-eabi-10-2020-q4-major-win32\gcc-arm-none-eabi-10-2020-q4-major\arm-none-eabi\include\c++\10.2.1\bits\basic_string.h **** 	struct __enable_if_not_native_iterator<_Tp, false> { };
 307:c:\gcc-arm-none-eabi-10-2020-q4-major-win32\gcc-arm-none-eabi-10-2020-q4-major\arm-none-eabi\include\c++\10.2.1\bits\basic_string.h **** #endif
 308:c:\gcc-arm-none-eabi-10-2020-q4-major-win32\gcc-arm-none-eabi-10-2020-q4-major\arm-none-eabi\include\c++\10.2.1\bits\basic_string.h **** 
 309:c:\gcc-arm-none-eabi-10-2020-q4-major-win32\gcc-arm-none-eabi-10-2020-q4-major\arm-none-eabi\include\c++\10.2.1\bits\basic_string.h ****       size_type
 310:c:\gcc-arm-none-eabi-10-2020-q4-major-win32\gcc-arm-none-eabi-10-2020-q4-major\arm-none-eabi\include\c++\10.2.1\bits\basic_string.h ****       _M_check(size_type __pos, const char* __s) const
 311:c:\gcc-arm-none-eabi-10-2020-q4-major-win32\gcc-arm-none-eabi-10-2020-q4-major\arm-none-eabi\include\c++\10.2.1\bits\basic_string.h ****       {
 312:c:\gcc-arm-none-eabi-10-2020-q4-major-win32\gcc-arm-none-eabi-10-2020-q4-major\arm-none-eabi\include\c++\10.2.1\bits\basic_string.h **** 	if (__pos > this->size())
 313:c:\gcc-arm-none-eabi-10-2020-q4-major-win32\gcc-arm-none-eabi-10-2020-q4-major\arm-none-eabi\include\c++\10.2.1\bits\basic_string.h **** 	  __throw_out_of_range_fmt(__N("%s: __pos (which is %zu) > "
 314:c:\gcc-arm-none-eabi-10-2020-q4-major-win32\gcc-arm-none-eabi-10-2020-q4-major\arm-none-eabi\include\c++\10.2.1\bits\basic_string.h **** 				       "this->size() (which is %zu)"),
 315:c:\gcc-arm-none-eabi-10-2020-q4-major-win32\gcc-arm-none-eabi-10-2020-q4-major\arm-none-eabi\include\c++\10.2.1\bits\basic_string.h **** 				   __s, __pos, this->size());
 316:c:\gcc-arm-none-eabi-10-2020-q4-major-win32\gcc-arm-none-eabi-10-2020-q4-major\arm-none-eabi\include\c++\10.2.1\bits\basic_string.h **** 	return __pos;
 317:c:\gcc-arm-none-eabi-10-2020-q4-major-win32\gcc-arm-none-eabi-10-2020-q4-major\arm-none-eabi\include\c++\10.2.1\bits\basic_string.h ****       }
 318:c:\gcc-arm-none-eabi-10-2020-q4-major-win32\gcc-arm-none-eabi-10-2020-q4-major\arm-none-eabi\include\c++\10.2.1\bits\basic_string.h **** 
 319:c:\gcc-arm-none-eabi-10-2020-q4-major-win32\gcc-arm-none-eabi-10-2020-q4-major\arm-none-eabi\include\c++\10.2.1\bits\basic_string.h ****       void
 320:c:\gcc-arm-none-eabi-10-2020-q4-major-win32\gcc-arm-none-eabi-10-2020-q4-major\arm-none-eabi\include\c++\10.2.1\bits\basic_string.h ****       _M_check_length(size_type __n1, size_type __n2, const char* __s) const
 321:c:\gcc-arm-none-eabi-10-2020-q4-major-win32\gcc-arm-none-eabi-10-2020-q4-major\arm-none-eabi\include\c++\10.2.1\bits\basic_string.h ****       {
 322:c:\gcc-arm-none-eabi-10-2020-q4-major-win32\gcc-arm-none-eabi-10-2020-q4-major\arm-none-eabi\include\c++\10.2.1\bits\basic_string.h **** 	if (this->max_size() - (this->size() - __n1) < __n2)
 323:c:\gcc-arm-none-eabi-10-2020-q4-major-win32\gcc-arm-none-eabi-10-2020-q4-major\arm-none-eabi\include\c++\10.2.1\bits\basic_string.h **** 	  __throw_length_error(__N(__s));
 324:c:\gcc-arm-none-eabi-10-2020-q4-major-win32\gcc-arm-none-eabi-10-2020-q4-major\arm-none-eabi\include\c++\10.2.1\bits\basic_string.h ****       }
 325:c:\gcc-arm-none-eabi-10-2020-q4-major-win32\gcc-arm-none-eabi-10-2020-q4-major\arm-none-eabi\include\c++\10.2.1\bits\basic_string.h **** 
 326:c:\gcc-arm-none-eabi-10-2020-q4-major-win32\gcc-arm-none-eabi-10-2020-q4-major\arm-none-eabi\include\c++\10.2.1\bits\basic_string.h **** 
 327:c:\gcc-arm-none-eabi-10-2020-q4-major-win32\gcc-arm-none-eabi-10-2020-q4-major\arm-none-eabi\include\c++\10.2.1\bits\basic_string.h ****       // NB: _M_limit doesn't check for a bad __pos value.
 328:c:\gcc-arm-none-eabi-10-2020-q4-major-win32\gcc-arm-none-eabi-10-2020-q4-major\arm-none-eabi\include\c++\10.2.1\bits\basic_string.h ****       size_type
 329:c:\gcc-arm-none-eabi-10-2020-q4-major-win32\gcc-arm-none-eabi-10-2020-q4-major\arm-none-eabi\include\c++\10.2.1\bits\basic_string.h ****       _M_limit(size_type __pos, size_type __off) const _GLIBCXX_NOEXCEPT
 330:c:\gcc-arm-none-eabi-10-2020-q4-major-win32\gcc-arm-none-eabi-10-2020-q4-major\arm-none-eabi\include\c++\10.2.1\bits\basic_string.h ****       {
 331:c:\gcc-arm-none-eabi-10-2020-q4-major-win32\gcc-arm-none-eabi-10-2020-q4-major\arm-none-eabi\include\c++\10.2.1\bits\basic_string.h **** 	const bool __testoff =  __off < this->size() - __pos;
 332:c:\gcc-arm-none-eabi-10-2020-q4-major-win32\gcc-arm-none-eabi-10-2020-q4-major\arm-none-eabi\include\c++\10.2.1\bits\basic_string.h **** 	return __testoff ? __off : this->size() - __pos;
 333:c:\gcc-arm-none-eabi-10-2020-q4-major-win32\gcc-arm-none-eabi-10-2020-q4-major\arm-none-eabi\include\c++\10.2.1\bits\basic_string.h ****       }
 334:c:\gcc-arm-none-eabi-10-2020-q4-major-win32\gcc-arm-none-eabi-10-2020-q4-major\arm-none-eabi\include\c++\10.2.1\bits\basic_string.h **** 
 335:c:\gcc-arm-none-eabi-10-2020-q4-major-win32\gcc-arm-none-eabi-10-2020-q4-major\arm-none-eabi\include\c++\10.2.1\bits\basic_string.h ****       // True if _Rep and source do not overlap.
 336:c:\gcc-arm-none-eabi-10-2020-q4-major-win32\gcc-arm-none-eabi-10-2020-q4-major\arm-none-eabi\include\c++\10.2.1\bits\basic_string.h ****       bool
 337:c:\gcc-arm-none-eabi-10-2020-q4-major-win32\gcc-arm-none-eabi-10-2020-q4-major\arm-none-eabi\include\c++\10.2.1\bits\basic_string.h ****       _M_disjunct(const _CharT* __s) const _GLIBCXX_NOEXCEPT
 338:c:\gcc-arm-none-eabi-10-2020-q4-major-win32\gcc-arm-none-eabi-10-2020-q4-major\arm-none-eabi\include\c++\10.2.1\bits\basic_string.h ****       {
 339:c:\gcc-arm-none-eabi-10-2020-q4-major-win32\gcc-arm-none-eabi-10-2020-q4-major\arm-none-eabi\include\c++\10.2.1\bits\basic_string.h **** 	return (less<const _CharT*>()(__s, _M_data())
 340:c:\gcc-arm-none-eabi-10-2020-q4-major-win32\gcc-arm-none-eabi-10-2020-q4-major\arm-none-eabi\include\c++\10.2.1\bits\basic_string.h **** 		|| less<const _CharT*>()(_M_data() + this->size(), __s));
 341:c:\gcc-arm-none-eabi-10-2020-q4-major-win32\gcc-arm-none-eabi-10-2020-q4-major\arm-none-eabi\include\c++\10.2.1\bits\basic_string.h ****       }
 342:c:\gcc-arm-none-eabi-10-2020-q4-major-win32\gcc-arm-none-eabi-10-2020-q4-major\arm-none-eabi\include\c++\10.2.1\bits\basic_string.h **** 
 343:c:\gcc-arm-none-eabi-10-2020-q4-major-win32\gcc-arm-none-eabi-10-2020-q4-major\arm-none-eabi\include\c++\10.2.1\bits\basic_string.h ****       // When __n = 1 way faster than the general multichar
 344:c:\gcc-arm-none-eabi-10-2020-q4-major-win32\gcc-arm-none-eabi-10-2020-q4-major\arm-none-eabi\include\c++\10.2.1\bits\basic_string.h ****       // traits_type::copy/move/assign.
 345:c:\gcc-arm-none-eabi-10-2020-q4-major-win32\gcc-arm-none-eabi-10-2020-q4-major\arm-none-eabi\include\c++\10.2.1\bits\basic_string.h ****       static void
 346:c:\gcc-arm-none-eabi-10-2020-q4-major-win32\gcc-arm-none-eabi-10-2020-q4-major\arm-none-eabi\include\c++\10.2.1\bits\basic_string.h ****       _S_copy(_CharT* __d, const _CharT* __s, size_type __n)
 347:c:\gcc-arm-none-eabi-10-2020-q4-major-win32\gcc-arm-none-eabi-10-2020-q4-major\arm-none-eabi\include\c++\10.2.1\bits\basic_string.h ****       {
 348:c:\gcc-arm-none-eabi-10-2020-q4-major-win32\gcc-arm-none-eabi-10-2020-q4-major\arm-none-eabi\include\c++\10.2.1\bits\basic_string.h **** 	if (__n == 1)
 349:c:\gcc-arm-none-eabi-10-2020-q4-major-win32\gcc-arm-none-eabi-10-2020-q4-major\arm-none-eabi\include\c++\10.2.1\bits\basic_string.h **** 	  traits_type::assign(*__d, *__s);
 350:c:\gcc-arm-none-eabi-10-2020-q4-major-win32\gcc-arm-none-eabi-10-2020-q4-major\arm-none-eabi\include\c++\10.2.1\bits\basic_string.h **** 	else
 351:c:\gcc-arm-none-eabi-10-2020-q4-major-win32\gcc-arm-none-eabi-10-2020-q4-major\arm-none-eabi\include\c++\10.2.1\bits\basic_string.h **** 	  traits_type::copy(__d, __s, __n);
 352:c:\gcc-arm-none-eabi-10-2020-q4-major-win32\gcc-arm-none-eabi-10-2020-q4-major\arm-none-eabi\include\c++\10.2.1\bits\basic_string.h ****       }
 353:c:\gcc-arm-none-eabi-10-2020-q4-major-win32\gcc-arm-none-eabi-10-2020-q4-major\arm-none-eabi\include\c++\10.2.1\bits\basic_string.h **** 
 354:c:\gcc-arm-none-eabi-10-2020-q4-major-win32\gcc-arm-none-eabi-10-2020-q4-major\arm-none-eabi\include\c++\10.2.1\bits\basic_string.h ****       static void
 355:c:\gcc-arm-none-eabi-10-2020-q4-major-win32\gcc-arm-none-eabi-10-2020-q4-major\arm-none-eabi\include\c++\10.2.1\bits\basic_string.h ****       _S_move(_CharT* __d, const _CharT* __s, size_type __n)
 356:c:\gcc-arm-none-eabi-10-2020-q4-major-win32\gcc-arm-none-eabi-10-2020-q4-major\arm-none-eabi\include\c++\10.2.1\bits\basic_string.h ****       {
 357:c:\gcc-arm-none-eabi-10-2020-q4-major-win32\gcc-arm-none-eabi-10-2020-q4-major\arm-none-eabi\include\c++\10.2.1\bits\basic_string.h **** 	if (__n == 1)
 358:c:\gcc-arm-none-eabi-10-2020-q4-major-win32\gcc-arm-none-eabi-10-2020-q4-major\arm-none-eabi\include\c++\10.2.1\bits\basic_string.h **** 	  traits_type::assign(*__d, *__s);
ARM GAS  C:\Users\hoang\AppData\Local\Temp\ccNMsdI7.s 			page 13


 359:c:\gcc-arm-none-eabi-10-2020-q4-major-win32\gcc-arm-none-eabi-10-2020-q4-major\arm-none-eabi\include\c++\10.2.1\bits\basic_string.h **** 	else
 360:c:\gcc-arm-none-eabi-10-2020-q4-major-win32\gcc-arm-none-eabi-10-2020-q4-major\arm-none-eabi\include\c++\10.2.1\bits\basic_string.h **** 	  traits_type::move(__d, __s, __n);
 361:c:\gcc-arm-none-eabi-10-2020-q4-major-win32\gcc-arm-none-eabi-10-2020-q4-major\arm-none-eabi\include\c++\10.2.1\bits\basic_string.h ****       }
 362:c:\gcc-arm-none-eabi-10-2020-q4-major-win32\gcc-arm-none-eabi-10-2020-q4-major\arm-none-eabi\include\c++\10.2.1\bits\basic_string.h **** 
 363:c:\gcc-arm-none-eabi-10-2020-q4-major-win32\gcc-arm-none-eabi-10-2020-q4-major\arm-none-eabi\include\c++\10.2.1\bits\basic_string.h ****       static void
 364:c:\gcc-arm-none-eabi-10-2020-q4-major-win32\gcc-arm-none-eabi-10-2020-q4-major\arm-none-eabi\include\c++\10.2.1\bits\basic_string.h ****       _S_assign(_CharT* __d, size_type __n, _CharT __c)
 365:c:\gcc-arm-none-eabi-10-2020-q4-major-win32\gcc-arm-none-eabi-10-2020-q4-major\arm-none-eabi\include\c++\10.2.1\bits\basic_string.h ****       {
 366:c:\gcc-arm-none-eabi-10-2020-q4-major-win32\gcc-arm-none-eabi-10-2020-q4-major\arm-none-eabi\include\c++\10.2.1\bits\basic_string.h **** 	if (__n == 1)
 367:c:\gcc-arm-none-eabi-10-2020-q4-major-win32\gcc-arm-none-eabi-10-2020-q4-major\arm-none-eabi\include\c++\10.2.1\bits\basic_string.h **** 	  traits_type::assign(*__d, __c);
 368:c:\gcc-arm-none-eabi-10-2020-q4-major-win32\gcc-arm-none-eabi-10-2020-q4-major\arm-none-eabi\include\c++\10.2.1\bits\basic_string.h **** 	else
 369:c:\gcc-arm-none-eabi-10-2020-q4-major-win32\gcc-arm-none-eabi-10-2020-q4-major\arm-none-eabi\include\c++\10.2.1\bits\basic_string.h **** 	  traits_type::assign(__d, __n, __c);
 370:c:\gcc-arm-none-eabi-10-2020-q4-major-win32\gcc-arm-none-eabi-10-2020-q4-major\arm-none-eabi\include\c++\10.2.1\bits\basic_string.h ****       }
 371:c:\gcc-arm-none-eabi-10-2020-q4-major-win32\gcc-arm-none-eabi-10-2020-q4-major\arm-none-eabi\include\c++\10.2.1\bits\basic_string.h **** 
 372:c:\gcc-arm-none-eabi-10-2020-q4-major-win32\gcc-arm-none-eabi-10-2020-q4-major\arm-none-eabi\include\c++\10.2.1\bits\basic_string.h ****       // _S_copy_chars is a separate template to permit specialization
 373:c:\gcc-arm-none-eabi-10-2020-q4-major-win32\gcc-arm-none-eabi-10-2020-q4-major\arm-none-eabi\include\c++\10.2.1\bits\basic_string.h ****       // to optimize for the common case of pointers as iterators.
 374:c:\gcc-arm-none-eabi-10-2020-q4-major-win32\gcc-arm-none-eabi-10-2020-q4-major\arm-none-eabi\include\c++\10.2.1\bits\basic_string.h ****       template<class _Iterator>
 375:c:\gcc-arm-none-eabi-10-2020-q4-major-win32\gcc-arm-none-eabi-10-2020-q4-major\arm-none-eabi\include\c++\10.2.1\bits\basic_string.h ****         static void
 376:c:\gcc-arm-none-eabi-10-2020-q4-major-win32\gcc-arm-none-eabi-10-2020-q4-major\arm-none-eabi\include\c++\10.2.1\bits\basic_string.h ****         _S_copy_chars(_CharT* __p, _Iterator __k1, _Iterator __k2)
 377:c:\gcc-arm-none-eabi-10-2020-q4-major-win32\gcc-arm-none-eabi-10-2020-q4-major\arm-none-eabi\include\c++\10.2.1\bits\basic_string.h ****         {
 378:c:\gcc-arm-none-eabi-10-2020-q4-major-win32\gcc-arm-none-eabi-10-2020-q4-major\arm-none-eabi\include\c++\10.2.1\bits\basic_string.h **** 	  for (; __k1 != __k2; ++__k1, (void)++__p)
 379:c:\gcc-arm-none-eabi-10-2020-q4-major-win32\gcc-arm-none-eabi-10-2020-q4-major\arm-none-eabi\include\c++\10.2.1\bits\basic_string.h **** 	    traits_type::assign(*__p, *__k1); // These types are off.
 380:c:\gcc-arm-none-eabi-10-2020-q4-major-win32\gcc-arm-none-eabi-10-2020-q4-major\arm-none-eabi\include\c++\10.2.1\bits\basic_string.h **** 	}
 381:c:\gcc-arm-none-eabi-10-2020-q4-major-win32\gcc-arm-none-eabi-10-2020-q4-major\arm-none-eabi\include\c++\10.2.1\bits\basic_string.h **** 
 382:c:\gcc-arm-none-eabi-10-2020-q4-major-win32\gcc-arm-none-eabi-10-2020-q4-major\arm-none-eabi\include\c++\10.2.1\bits\basic_string.h ****       static void
 383:c:\gcc-arm-none-eabi-10-2020-q4-major-win32\gcc-arm-none-eabi-10-2020-q4-major\arm-none-eabi\include\c++\10.2.1\bits\basic_string.h ****       _S_copy_chars(_CharT* __p, iterator __k1, iterator __k2) _GLIBCXX_NOEXCEPT
 384:c:\gcc-arm-none-eabi-10-2020-q4-major-win32\gcc-arm-none-eabi-10-2020-q4-major\arm-none-eabi\include\c++\10.2.1\bits\basic_string.h ****       { _S_copy_chars(__p, __k1.base(), __k2.base()); }
 385:c:\gcc-arm-none-eabi-10-2020-q4-major-win32\gcc-arm-none-eabi-10-2020-q4-major\arm-none-eabi\include\c++\10.2.1\bits\basic_string.h **** 
 386:c:\gcc-arm-none-eabi-10-2020-q4-major-win32\gcc-arm-none-eabi-10-2020-q4-major\arm-none-eabi\include\c++\10.2.1\bits\basic_string.h ****       static void
 387:c:\gcc-arm-none-eabi-10-2020-q4-major-win32\gcc-arm-none-eabi-10-2020-q4-major\arm-none-eabi\include\c++\10.2.1\bits\basic_string.h ****       _S_copy_chars(_CharT* __p, const_iterator __k1, const_iterator __k2)
 388:c:\gcc-arm-none-eabi-10-2020-q4-major-win32\gcc-arm-none-eabi-10-2020-q4-major\arm-none-eabi\include\c++\10.2.1\bits\basic_string.h ****       _GLIBCXX_NOEXCEPT
 389:c:\gcc-arm-none-eabi-10-2020-q4-major-win32\gcc-arm-none-eabi-10-2020-q4-major\arm-none-eabi\include\c++\10.2.1\bits\basic_string.h ****       { _S_copy_chars(__p, __k1.base(), __k2.base()); }
 390:c:\gcc-arm-none-eabi-10-2020-q4-major-win32\gcc-arm-none-eabi-10-2020-q4-major\arm-none-eabi\include\c++\10.2.1\bits\basic_string.h **** 
 391:c:\gcc-arm-none-eabi-10-2020-q4-major-win32\gcc-arm-none-eabi-10-2020-q4-major\arm-none-eabi\include\c++\10.2.1\bits\basic_string.h ****       static void
 392:c:\gcc-arm-none-eabi-10-2020-q4-major-win32\gcc-arm-none-eabi-10-2020-q4-major\arm-none-eabi\include\c++\10.2.1\bits\basic_string.h ****       _S_copy_chars(_CharT* __p, _CharT* __k1, _CharT* __k2) _GLIBCXX_NOEXCEPT
 393:c:\gcc-arm-none-eabi-10-2020-q4-major-win32\gcc-arm-none-eabi-10-2020-q4-major\arm-none-eabi\include\c++\10.2.1\bits\basic_string.h ****       { _S_copy(__p, __k1, __k2 - __k1); }
 394:c:\gcc-arm-none-eabi-10-2020-q4-major-win32\gcc-arm-none-eabi-10-2020-q4-major\arm-none-eabi\include\c++\10.2.1\bits\basic_string.h **** 
 395:c:\gcc-arm-none-eabi-10-2020-q4-major-win32\gcc-arm-none-eabi-10-2020-q4-major\arm-none-eabi\include\c++\10.2.1\bits\basic_string.h ****       static void
 396:c:\gcc-arm-none-eabi-10-2020-q4-major-win32\gcc-arm-none-eabi-10-2020-q4-major\arm-none-eabi\include\c++\10.2.1\bits\basic_string.h ****       _S_copy_chars(_CharT* __p, const _CharT* __k1, const _CharT* __k2)
 397:c:\gcc-arm-none-eabi-10-2020-q4-major-win32\gcc-arm-none-eabi-10-2020-q4-major\arm-none-eabi\include\c++\10.2.1\bits\basic_string.h ****       _GLIBCXX_NOEXCEPT
 398:c:\gcc-arm-none-eabi-10-2020-q4-major-win32\gcc-arm-none-eabi-10-2020-q4-major\arm-none-eabi\include\c++\10.2.1\bits\basic_string.h ****       { _S_copy(__p, __k1, __k2 - __k1); }
 399:c:\gcc-arm-none-eabi-10-2020-q4-major-win32\gcc-arm-none-eabi-10-2020-q4-major\arm-none-eabi\include\c++\10.2.1\bits\basic_string.h **** 
 400:c:\gcc-arm-none-eabi-10-2020-q4-major-win32\gcc-arm-none-eabi-10-2020-q4-major\arm-none-eabi\include\c++\10.2.1\bits\basic_string.h ****       static int
 401:c:\gcc-arm-none-eabi-10-2020-q4-major-win32\gcc-arm-none-eabi-10-2020-q4-major\arm-none-eabi\include\c++\10.2.1\bits\basic_string.h ****       _S_compare(size_type __n1, size_type __n2) _GLIBCXX_NOEXCEPT
 402:c:\gcc-arm-none-eabi-10-2020-q4-major-win32\gcc-arm-none-eabi-10-2020-q4-major\arm-none-eabi\include\c++\10.2.1\bits\basic_string.h ****       {
 403:c:\gcc-arm-none-eabi-10-2020-q4-major-win32\gcc-arm-none-eabi-10-2020-q4-major\arm-none-eabi\include\c++\10.2.1\bits\basic_string.h **** 	const difference_type __d = difference_type(__n1 - __n2);
 404:c:\gcc-arm-none-eabi-10-2020-q4-major-win32\gcc-arm-none-eabi-10-2020-q4-major\arm-none-eabi\include\c++\10.2.1\bits\basic_string.h **** 
 405:c:\gcc-arm-none-eabi-10-2020-q4-major-win32\gcc-arm-none-eabi-10-2020-q4-major\arm-none-eabi\include\c++\10.2.1\bits\basic_string.h **** 	if (__d > __gnu_cxx::__numeric_traits<int>::__max)
 406:c:\gcc-arm-none-eabi-10-2020-q4-major-win32\gcc-arm-none-eabi-10-2020-q4-major\arm-none-eabi\include\c++\10.2.1\bits\basic_string.h **** 	  return __gnu_cxx::__numeric_traits<int>::__max;
 407:c:\gcc-arm-none-eabi-10-2020-q4-major-win32\gcc-arm-none-eabi-10-2020-q4-major\arm-none-eabi\include\c++\10.2.1\bits\basic_string.h **** 	else if (__d < __gnu_cxx::__numeric_traits<int>::__min)
 408:c:\gcc-arm-none-eabi-10-2020-q4-major-win32\gcc-arm-none-eabi-10-2020-q4-major\arm-none-eabi\include\c++\10.2.1\bits\basic_string.h **** 	  return __gnu_cxx::__numeric_traits<int>::__min;
 409:c:\gcc-arm-none-eabi-10-2020-q4-major-win32\gcc-arm-none-eabi-10-2020-q4-major\arm-none-eabi\include\c++\10.2.1\bits\basic_string.h **** 	else
 410:c:\gcc-arm-none-eabi-10-2020-q4-major-win32\gcc-arm-none-eabi-10-2020-q4-major\arm-none-eabi\include\c++\10.2.1\bits\basic_string.h **** 	  return int(__d);
 411:c:\gcc-arm-none-eabi-10-2020-q4-major-win32\gcc-arm-none-eabi-10-2020-q4-major\arm-none-eabi\include\c++\10.2.1\bits\basic_string.h ****       }
 412:c:\gcc-arm-none-eabi-10-2020-q4-major-win32\gcc-arm-none-eabi-10-2020-q4-major\arm-none-eabi\include\c++\10.2.1\bits\basic_string.h **** 
 413:c:\gcc-arm-none-eabi-10-2020-q4-major-win32\gcc-arm-none-eabi-10-2020-q4-major\arm-none-eabi\include\c++\10.2.1\bits\basic_string.h ****       void
 414:c:\gcc-arm-none-eabi-10-2020-q4-major-win32\gcc-arm-none-eabi-10-2020-q4-major\arm-none-eabi\include\c++\10.2.1\bits\basic_string.h ****       _M_assign(const basic_string&);
 415:c:\gcc-arm-none-eabi-10-2020-q4-major-win32\gcc-arm-none-eabi-10-2020-q4-major\arm-none-eabi\include\c++\10.2.1\bits\basic_string.h **** 
ARM GAS  C:\Users\hoang\AppData\Local\Temp\ccNMsdI7.s 			page 14


 416:c:\gcc-arm-none-eabi-10-2020-q4-major-win32\gcc-arm-none-eabi-10-2020-q4-major\arm-none-eabi\include\c++\10.2.1\bits\basic_string.h ****       void
 417:c:\gcc-arm-none-eabi-10-2020-q4-major-win32\gcc-arm-none-eabi-10-2020-q4-major\arm-none-eabi\include\c++\10.2.1\bits\basic_string.h ****       _M_mutate(size_type __pos, size_type __len1, const _CharT* __s,
 418:c:\gcc-arm-none-eabi-10-2020-q4-major-win32\gcc-arm-none-eabi-10-2020-q4-major\arm-none-eabi\include\c++\10.2.1\bits\basic_string.h **** 		size_type __len2);
 419:c:\gcc-arm-none-eabi-10-2020-q4-major-win32\gcc-arm-none-eabi-10-2020-q4-major\arm-none-eabi\include\c++\10.2.1\bits\basic_string.h **** 
 420:c:\gcc-arm-none-eabi-10-2020-q4-major-win32\gcc-arm-none-eabi-10-2020-q4-major\arm-none-eabi\include\c++\10.2.1\bits\basic_string.h ****       void
 421:c:\gcc-arm-none-eabi-10-2020-q4-major-win32\gcc-arm-none-eabi-10-2020-q4-major\arm-none-eabi\include\c++\10.2.1\bits\basic_string.h ****       _M_erase(size_type __pos, size_type __n);
 422:c:\gcc-arm-none-eabi-10-2020-q4-major-win32\gcc-arm-none-eabi-10-2020-q4-major\arm-none-eabi\include\c++\10.2.1\bits\basic_string.h **** 
 423:c:\gcc-arm-none-eabi-10-2020-q4-major-win32\gcc-arm-none-eabi-10-2020-q4-major\arm-none-eabi\include\c++\10.2.1\bits\basic_string.h ****     public:
 424:c:\gcc-arm-none-eabi-10-2020-q4-major-win32\gcc-arm-none-eabi-10-2020-q4-major\arm-none-eabi\include\c++\10.2.1\bits\basic_string.h ****       // Construct/copy/destroy:
 425:c:\gcc-arm-none-eabi-10-2020-q4-major-win32\gcc-arm-none-eabi-10-2020-q4-major\arm-none-eabi\include\c++\10.2.1\bits\basic_string.h ****       // NB: We overload ctors in some cases instead of using default
 426:c:\gcc-arm-none-eabi-10-2020-q4-major-win32\gcc-arm-none-eabi-10-2020-q4-major\arm-none-eabi\include\c++\10.2.1\bits\basic_string.h ****       // arguments, per 17.4.4.4 para. 2 item 2.
 427:c:\gcc-arm-none-eabi-10-2020-q4-major-win32\gcc-arm-none-eabi-10-2020-q4-major\arm-none-eabi\include\c++\10.2.1\bits\basic_string.h **** 
 428:c:\gcc-arm-none-eabi-10-2020-q4-major-win32\gcc-arm-none-eabi-10-2020-q4-major\arm-none-eabi\include\c++\10.2.1\bits\basic_string.h ****       /**
 429:c:\gcc-arm-none-eabi-10-2020-q4-major-win32\gcc-arm-none-eabi-10-2020-q4-major\arm-none-eabi\include\c++\10.2.1\bits\basic_string.h ****        *  @brief  Default constructor creates an empty string.
 430:c:\gcc-arm-none-eabi-10-2020-q4-major-win32\gcc-arm-none-eabi-10-2020-q4-major\arm-none-eabi\include\c++\10.2.1\bits\basic_string.h ****        */
 431:c:\gcc-arm-none-eabi-10-2020-q4-major-win32\gcc-arm-none-eabi-10-2020-q4-major\arm-none-eabi\include\c++\10.2.1\bits\basic_string.h ****       basic_string()
 432:c:\gcc-arm-none-eabi-10-2020-q4-major-win32\gcc-arm-none-eabi-10-2020-q4-major\arm-none-eabi\include\c++\10.2.1\bits\basic_string.h ****       _GLIBCXX_NOEXCEPT_IF(is_nothrow_default_constructible<_Alloc>::value)
 433:c:\gcc-arm-none-eabi-10-2020-q4-major-win32\gcc-arm-none-eabi-10-2020-q4-major\arm-none-eabi\include\c++\10.2.1\bits\basic_string.h ****       : _M_dataplus(_M_local_data())
 434:c:\gcc-arm-none-eabi-10-2020-q4-major-win32\gcc-arm-none-eabi-10-2020-q4-major\arm-none-eabi\include\c++\10.2.1\bits\basic_string.h ****       { _M_set_length(0); }
 435:c:\gcc-arm-none-eabi-10-2020-q4-major-win32\gcc-arm-none-eabi-10-2020-q4-major\arm-none-eabi\include\c++\10.2.1\bits\basic_string.h **** 
 436:c:\gcc-arm-none-eabi-10-2020-q4-major-win32\gcc-arm-none-eabi-10-2020-q4-major\arm-none-eabi\include\c++\10.2.1\bits\basic_string.h ****       /**
 437:c:\gcc-arm-none-eabi-10-2020-q4-major-win32\gcc-arm-none-eabi-10-2020-q4-major\arm-none-eabi\include\c++\10.2.1\bits\basic_string.h ****        *  @brief  Construct an empty string using allocator @a a.
 438:c:\gcc-arm-none-eabi-10-2020-q4-major-win32\gcc-arm-none-eabi-10-2020-q4-major\arm-none-eabi\include\c++\10.2.1\bits\basic_string.h ****        */
 439:c:\gcc-arm-none-eabi-10-2020-q4-major-win32\gcc-arm-none-eabi-10-2020-q4-major\arm-none-eabi\include\c++\10.2.1\bits\basic_string.h ****       explicit
 440:c:\gcc-arm-none-eabi-10-2020-q4-major-win32\gcc-arm-none-eabi-10-2020-q4-major\arm-none-eabi\include\c++\10.2.1\bits\basic_string.h ****       basic_string(const _Alloc& __a) _GLIBCXX_NOEXCEPT
 441:c:\gcc-arm-none-eabi-10-2020-q4-major-win32\gcc-arm-none-eabi-10-2020-q4-major\arm-none-eabi\include\c++\10.2.1\bits\basic_string.h ****       : _M_dataplus(_M_local_data(), __a)
 442:c:\gcc-arm-none-eabi-10-2020-q4-major-win32\gcc-arm-none-eabi-10-2020-q4-major\arm-none-eabi\include\c++\10.2.1\bits\basic_string.h ****       { _M_set_length(0); }
 443:c:\gcc-arm-none-eabi-10-2020-q4-major-win32\gcc-arm-none-eabi-10-2020-q4-major\arm-none-eabi\include\c++\10.2.1\bits\basic_string.h **** 
 444:c:\gcc-arm-none-eabi-10-2020-q4-major-win32\gcc-arm-none-eabi-10-2020-q4-major\arm-none-eabi\include\c++\10.2.1\bits\basic_string.h ****       /**
 445:c:\gcc-arm-none-eabi-10-2020-q4-major-win32\gcc-arm-none-eabi-10-2020-q4-major\arm-none-eabi\include\c++\10.2.1\bits\basic_string.h ****        *  @brief  Construct string with copy of value of @a __str.
 446:c:\gcc-arm-none-eabi-10-2020-q4-major-win32\gcc-arm-none-eabi-10-2020-q4-major\arm-none-eabi\include\c++\10.2.1\bits\basic_string.h ****        *  @param  __str  Source string.
 447:c:\gcc-arm-none-eabi-10-2020-q4-major-win32\gcc-arm-none-eabi-10-2020-q4-major\arm-none-eabi\include\c++\10.2.1\bits\basic_string.h ****        */
 448:c:\gcc-arm-none-eabi-10-2020-q4-major-win32\gcc-arm-none-eabi-10-2020-q4-major\arm-none-eabi\include\c++\10.2.1\bits\basic_string.h ****       basic_string(const basic_string& __str)
 449:c:\gcc-arm-none-eabi-10-2020-q4-major-win32\gcc-arm-none-eabi-10-2020-q4-major\arm-none-eabi\include\c++\10.2.1\bits\basic_string.h ****       : _M_dataplus(_M_local_data(),
 450:c:\gcc-arm-none-eabi-10-2020-q4-major-win32\gcc-arm-none-eabi-10-2020-q4-major\arm-none-eabi\include\c++\10.2.1\bits\basic_string.h **** 		    _Alloc_traits::_S_select_on_copy(__str._M_get_allocator()))
 451:c:\gcc-arm-none-eabi-10-2020-q4-major-win32\gcc-arm-none-eabi-10-2020-q4-major\arm-none-eabi\include\c++\10.2.1\bits\basic_string.h ****       { _M_construct(__str._M_data(), __str._M_data() + __str.length()); }
 452:c:\gcc-arm-none-eabi-10-2020-q4-major-win32\gcc-arm-none-eabi-10-2020-q4-major\arm-none-eabi\include\c++\10.2.1\bits\basic_string.h **** 
 453:c:\gcc-arm-none-eabi-10-2020-q4-major-win32\gcc-arm-none-eabi-10-2020-q4-major\arm-none-eabi\include\c++\10.2.1\bits\basic_string.h ****       // _GLIBCXX_RESOLVE_LIB_DEFECTS
 454:c:\gcc-arm-none-eabi-10-2020-q4-major-win32\gcc-arm-none-eabi-10-2020-q4-major\arm-none-eabi\include\c++\10.2.1\bits\basic_string.h ****       // 2583. no way to supply an allocator for basic_string(str, pos)
 455:c:\gcc-arm-none-eabi-10-2020-q4-major-win32\gcc-arm-none-eabi-10-2020-q4-major\arm-none-eabi\include\c++\10.2.1\bits\basic_string.h ****       /**
 456:c:\gcc-arm-none-eabi-10-2020-q4-major-win32\gcc-arm-none-eabi-10-2020-q4-major\arm-none-eabi\include\c++\10.2.1\bits\basic_string.h ****        *  @brief  Construct string as copy of a substring.
 457:c:\gcc-arm-none-eabi-10-2020-q4-major-win32\gcc-arm-none-eabi-10-2020-q4-major\arm-none-eabi\include\c++\10.2.1\bits\basic_string.h ****        *  @param  __str  Source string.
 458:c:\gcc-arm-none-eabi-10-2020-q4-major-win32\gcc-arm-none-eabi-10-2020-q4-major\arm-none-eabi\include\c++\10.2.1\bits\basic_string.h ****        *  @param  __pos  Index of first character to copy from.
 459:c:\gcc-arm-none-eabi-10-2020-q4-major-win32\gcc-arm-none-eabi-10-2020-q4-major\arm-none-eabi\include\c++\10.2.1\bits\basic_string.h ****        *  @param  __a  Allocator to use.
 460:c:\gcc-arm-none-eabi-10-2020-q4-major-win32\gcc-arm-none-eabi-10-2020-q4-major\arm-none-eabi\include\c++\10.2.1\bits\basic_string.h ****        */
 461:c:\gcc-arm-none-eabi-10-2020-q4-major-win32\gcc-arm-none-eabi-10-2020-q4-major\arm-none-eabi\include\c++\10.2.1\bits\basic_string.h ****       basic_string(const basic_string& __str, size_type __pos,
 462:c:\gcc-arm-none-eabi-10-2020-q4-major-win32\gcc-arm-none-eabi-10-2020-q4-major\arm-none-eabi\include\c++\10.2.1\bits\basic_string.h **** 		   const _Alloc& __a = _Alloc())
 463:c:\gcc-arm-none-eabi-10-2020-q4-major-win32\gcc-arm-none-eabi-10-2020-q4-major\arm-none-eabi\include\c++\10.2.1\bits\basic_string.h ****       : _M_dataplus(_M_local_data(), __a)
 464:c:\gcc-arm-none-eabi-10-2020-q4-major-win32\gcc-arm-none-eabi-10-2020-q4-major\arm-none-eabi\include\c++\10.2.1\bits\basic_string.h ****       {
 465:c:\gcc-arm-none-eabi-10-2020-q4-major-win32\gcc-arm-none-eabi-10-2020-q4-major\arm-none-eabi\include\c++\10.2.1\bits\basic_string.h **** 	const _CharT* __start = __str._M_data()
 466:c:\gcc-arm-none-eabi-10-2020-q4-major-win32\gcc-arm-none-eabi-10-2020-q4-major\arm-none-eabi\include\c++\10.2.1\bits\basic_string.h **** 	  + __str._M_check(__pos, "basic_string::basic_string");
 467:c:\gcc-arm-none-eabi-10-2020-q4-major-win32\gcc-arm-none-eabi-10-2020-q4-major\arm-none-eabi\include\c++\10.2.1\bits\basic_string.h **** 	_M_construct(__start, __start + __str._M_limit(__pos, npos));
 468:c:\gcc-arm-none-eabi-10-2020-q4-major-win32\gcc-arm-none-eabi-10-2020-q4-major\arm-none-eabi\include\c++\10.2.1\bits\basic_string.h ****       }
 469:c:\gcc-arm-none-eabi-10-2020-q4-major-win32\gcc-arm-none-eabi-10-2020-q4-major\arm-none-eabi\include\c++\10.2.1\bits\basic_string.h **** 
 470:c:\gcc-arm-none-eabi-10-2020-q4-major-win32\gcc-arm-none-eabi-10-2020-q4-major\arm-none-eabi\include\c++\10.2.1\bits\basic_string.h ****       /**
 471:c:\gcc-arm-none-eabi-10-2020-q4-major-win32\gcc-arm-none-eabi-10-2020-q4-major\arm-none-eabi\include\c++\10.2.1\bits\basic_string.h ****        *  @brief  Construct string as copy of a substring.
 472:c:\gcc-arm-none-eabi-10-2020-q4-major-win32\gcc-arm-none-eabi-10-2020-q4-major\arm-none-eabi\include\c++\10.2.1\bits\basic_string.h ****        *  @param  __str  Source string.
ARM GAS  C:\Users\hoang\AppData\Local\Temp\ccNMsdI7.s 			page 15


 473:c:\gcc-arm-none-eabi-10-2020-q4-major-win32\gcc-arm-none-eabi-10-2020-q4-major\arm-none-eabi\include\c++\10.2.1\bits\basic_string.h ****        *  @param  __pos  Index of first character to copy from.
 474:c:\gcc-arm-none-eabi-10-2020-q4-major-win32\gcc-arm-none-eabi-10-2020-q4-major\arm-none-eabi\include\c++\10.2.1\bits\basic_string.h ****        *  @param  __n  Number of characters to copy.
 475:c:\gcc-arm-none-eabi-10-2020-q4-major-win32\gcc-arm-none-eabi-10-2020-q4-major\arm-none-eabi\include\c++\10.2.1\bits\basic_string.h ****        */
 476:c:\gcc-arm-none-eabi-10-2020-q4-major-win32\gcc-arm-none-eabi-10-2020-q4-major\arm-none-eabi\include\c++\10.2.1\bits\basic_string.h ****       basic_string(const basic_string& __str, size_type __pos,
 477:c:\gcc-arm-none-eabi-10-2020-q4-major-win32\gcc-arm-none-eabi-10-2020-q4-major\arm-none-eabi\include\c++\10.2.1\bits\basic_string.h **** 		   size_type __n)
 478:c:\gcc-arm-none-eabi-10-2020-q4-major-win32\gcc-arm-none-eabi-10-2020-q4-major\arm-none-eabi\include\c++\10.2.1\bits\basic_string.h ****       : _M_dataplus(_M_local_data())
 479:c:\gcc-arm-none-eabi-10-2020-q4-major-win32\gcc-arm-none-eabi-10-2020-q4-major\arm-none-eabi\include\c++\10.2.1\bits\basic_string.h ****       {
 480:c:\gcc-arm-none-eabi-10-2020-q4-major-win32\gcc-arm-none-eabi-10-2020-q4-major\arm-none-eabi\include\c++\10.2.1\bits\basic_string.h **** 	const _CharT* __start = __str._M_data()
 481:c:\gcc-arm-none-eabi-10-2020-q4-major-win32\gcc-arm-none-eabi-10-2020-q4-major\arm-none-eabi\include\c++\10.2.1\bits\basic_string.h **** 	  + __str._M_check(__pos, "basic_string::basic_string");
 482:c:\gcc-arm-none-eabi-10-2020-q4-major-win32\gcc-arm-none-eabi-10-2020-q4-major\arm-none-eabi\include\c++\10.2.1\bits\basic_string.h **** 	_M_construct(__start, __start + __str._M_limit(__pos, __n));
 483:c:\gcc-arm-none-eabi-10-2020-q4-major-win32\gcc-arm-none-eabi-10-2020-q4-major\arm-none-eabi\include\c++\10.2.1\bits\basic_string.h ****       }
 484:c:\gcc-arm-none-eabi-10-2020-q4-major-win32\gcc-arm-none-eabi-10-2020-q4-major\arm-none-eabi\include\c++\10.2.1\bits\basic_string.h **** 
 485:c:\gcc-arm-none-eabi-10-2020-q4-major-win32\gcc-arm-none-eabi-10-2020-q4-major\arm-none-eabi\include\c++\10.2.1\bits\basic_string.h ****       /**
 486:c:\gcc-arm-none-eabi-10-2020-q4-major-win32\gcc-arm-none-eabi-10-2020-q4-major\arm-none-eabi\include\c++\10.2.1\bits\basic_string.h ****        *  @brief  Construct string as copy of a substring.
 487:c:\gcc-arm-none-eabi-10-2020-q4-major-win32\gcc-arm-none-eabi-10-2020-q4-major\arm-none-eabi\include\c++\10.2.1\bits\basic_string.h ****        *  @param  __str  Source string.
 488:c:\gcc-arm-none-eabi-10-2020-q4-major-win32\gcc-arm-none-eabi-10-2020-q4-major\arm-none-eabi\include\c++\10.2.1\bits\basic_string.h ****        *  @param  __pos  Index of first character to copy from.
 489:c:\gcc-arm-none-eabi-10-2020-q4-major-win32\gcc-arm-none-eabi-10-2020-q4-major\arm-none-eabi\include\c++\10.2.1\bits\basic_string.h ****        *  @param  __n  Number of characters to copy.
 490:c:\gcc-arm-none-eabi-10-2020-q4-major-win32\gcc-arm-none-eabi-10-2020-q4-major\arm-none-eabi\include\c++\10.2.1\bits\basic_string.h ****        *  @param  __a  Allocator to use.
 491:c:\gcc-arm-none-eabi-10-2020-q4-major-win32\gcc-arm-none-eabi-10-2020-q4-major\arm-none-eabi\include\c++\10.2.1\bits\basic_string.h ****        */
 492:c:\gcc-arm-none-eabi-10-2020-q4-major-win32\gcc-arm-none-eabi-10-2020-q4-major\arm-none-eabi\include\c++\10.2.1\bits\basic_string.h ****       basic_string(const basic_string& __str, size_type __pos,
 493:c:\gcc-arm-none-eabi-10-2020-q4-major-win32\gcc-arm-none-eabi-10-2020-q4-major\arm-none-eabi\include\c++\10.2.1\bits\basic_string.h **** 		   size_type __n, const _Alloc& __a)
 494:c:\gcc-arm-none-eabi-10-2020-q4-major-win32\gcc-arm-none-eabi-10-2020-q4-major\arm-none-eabi\include\c++\10.2.1\bits\basic_string.h ****       : _M_dataplus(_M_local_data(), __a)
 495:c:\gcc-arm-none-eabi-10-2020-q4-major-win32\gcc-arm-none-eabi-10-2020-q4-major\arm-none-eabi\include\c++\10.2.1\bits\basic_string.h ****       {
 496:c:\gcc-arm-none-eabi-10-2020-q4-major-win32\gcc-arm-none-eabi-10-2020-q4-major\arm-none-eabi\include\c++\10.2.1\bits\basic_string.h **** 	const _CharT* __start
 497:c:\gcc-arm-none-eabi-10-2020-q4-major-win32\gcc-arm-none-eabi-10-2020-q4-major\arm-none-eabi\include\c++\10.2.1\bits\basic_string.h **** 	  = __str._M_data() + __str._M_check(__pos, "string::string");
 498:c:\gcc-arm-none-eabi-10-2020-q4-major-win32\gcc-arm-none-eabi-10-2020-q4-major\arm-none-eabi\include\c++\10.2.1\bits\basic_string.h **** 	_M_construct(__start, __start + __str._M_limit(__pos, __n));
 499:c:\gcc-arm-none-eabi-10-2020-q4-major-win32\gcc-arm-none-eabi-10-2020-q4-major\arm-none-eabi\include\c++\10.2.1\bits\basic_string.h ****       }
 500:c:\gcc-arm-none-eabi-10-2020-q4-major-win32\gcc-arm-none-eabi-10-2020-q4-major\arm-none-eabi\include\c++\10.2.1\bits\basic_string.h **** 
 501:c:\gcc-arm-none-eabi-10-2020-q4-major-win32\gcc-arm-none-eabi-10-2020-q4-major\arm-none-eabi\include\c++\10.2.1\bits\basic_string.h ****       /**
 502:c:\gcc-arm-none-eabi-10-2020-q4-major-win32\gcc-arm-none-eabi-10-2020-q4-major\arm-none-eabi\include\c++\10.2.1\bits\basic_string.h ****        *  @brief  Construct string initialized by a character %array.
 503:c:\gcc-arm-none-eabi-10-2020-q4-major-win32\gcc-arm-none-eabi-10-2020-q4-major\arm-none-eabi\include\c++\10.2.1\bits\basic_string.h ****        *  @param  __s  Source character %array.
 504:c:\gcc-arm-none-eabi-10-2020-q4-major-win32\gcc-arm-none-eabi-10-2020-q4-major\arm-none-eabi\include\c++\10.2.1\bits\basic_string.h ****        *  @param  __n  Number of characters to copy.
 505:c:\gcc-arm-none-eabi-10-2020-q4-major-win32\gcc-arm-none-eabi-10-2020-q4-major\arm-none-eabi\include\c++\10.2.1\bits\basic_string.h ****        *  @param  __a  Allocator to use (default is default allocator).
 506:c:\gcc-arm-none-eabi-10-2020-q4-major-win32\gcc-arm-none-eabi-10-2020-q4-major\arm-none-eabi\include\c++\10.2.1\bits\basic_string.h ****        *
 507:c:\gcc-arm-none-eabi-10-2020-q4-major-win32\gcc-arm-none-eabi-10-2020-q4-major\arm-none-eabi\include\c++\10.2.1\bits\basic_string.h ****        *  NB: @a __s must have at least @a __n characters, &apos;\\0&apos;
 508:c:\gcc-arm-none-eabi-10-2020-q4-major-win32\gcc-arm-none-eabi-10-2020-q4-major\arm-none-eabi\include\c++\10.2.1\bits\basic_string.h ****        *  has no special meaning.
 509:c:\gcc-arm-none-eabi-10-2020-q4-major-win32\gcc-arm-none-eabi-10-2020-q4-major\arm-none-eabi\include\c++\10.2.1\bits\basic_string.h ****        */
 510:c:\gcc-arm-none-eabi-10-2020-q4-major-win32\gcc-arm-none-eabi-10-2020-q4-major\arm-none-eabi\include\c++\10.2.1\bits\basic_string.h ****       basic_string(const _CharT* __s, size_type __n,
 511:c:\gcc-arm-none-eabi-10-2020-q4-major-win32\gcc-arm-none-eabi-10-2020-q4-major\arm-none-eabi\include\c++\10.2.1\bits\basic_string.h **** 		   const _Alloc& __a = _Alloc())
 512:c:\gcc-arm-none-eabi-10-2020-q4-major-win32\gcc-arm-none-eabi-10-2020-q4-major\arm-none-eabi\include\c++\10.2.1\bits\basic_string.h ****       : _M_dataplus(_M_local_data(), __a)
 513:c:\gcc-arm-none-eabi-10-2020-q4-major-win32\gcc-arm-none-eabi-10-2020-q4-major\arm-none-eabi\include\c++\10.2.1\bits\basic_string.h ****       { _M_construct(__s, __s + __n); }
 514:c:\gcc-arm-none-eabi-10-2020-q4-major-win32\gcc-arm-none-eabi-10-2020-q4-major\arm-none-eabi\include\c++\10.2.1\bits\basic_string.h **** 
 515:c:\gcc-arm-none-eabi-10-2020-q4-major-win32\gcc-arm-none-eabi-10-2020-q4-major\arm-none-eabi\include\c++\10.2.1\bits\basic_string.h ****       /**
 516:c:\gcc-arm-none-eabi-10-2020-q4-major-win32\gcc-arm-none-eabi-10-2020-q4-major\arm-none-eabi\include\c++\10.2.1\bits\basic_string.h ****        *  @brief  Construct string as copy of a C string.
 517:c:\gcc-arm-none-eabi-10-2020-q4-major-win32\gcc-arm-none-eabi-10-2020-q4-major\arm-none-eabi\include\c++\10.2.1\bits\basic_string.h ****        *  @param  __s  Source C string.
 518:c:\gcc-arm-none-eabi-10-2020-q4-major-win32\gcc-arm-none-eabi-10-2020-q4-major\arm-none-eabi\include\c++\10.2.1\bits\basic_string.h ****        *  @param  __a  Allocator to use (default is default allocator).
 519:c:\gcc-arm-none-eabi-10-2020-q4-major-win32\gcc-arm-none-eabi-10-2020-q4-major\arm-none-eabi\include\c++\10.2.1\bits\basic_string.h ****        */
 520:c:\gcc-arm-none-eabi-10-2020-q4-major-win32\gcc-arm-none-eabi-10-2020-q4-major\arm-none-eabi\include\c++\10.2.1\bits\basic_string.h **** #if __cpp_deduction_guides && ! defined _GLIBCXX_DEFINING_STRING_INSTANTIATIONS
 521:c:\gcc-arm-none-eabi-10-2020-q4-major-win32\gcc-arm-none-eabi-10-2020-q4-major\arm-none-eabi\include\c++\10.2.1\bits\basic_string.h ****       // _GLIBCXX_RESOLVE_LIB_DEFECTS
 522:c:\gcc-arm-none-eabi-10-2020-q4-major-win32\gcc-arm-none-eabi-10-2020-q4-major\arm-none-eabi\include\c++\10.2.1\bits\basic_string.h ****       // 3076. basic_string CTAD ambiguity
 523:c:\gcc-arm-none-eabi-10-2020-q4-major-win32\gcc-arm-none-eabi-10-2020-q4-major\arm-none-eabi\include\c++\10.2.1\bits\basic_string.h ****       template<typename = _RequireAllocator<_Alloc>>
 524:c:\gcc-arm-none-eabi-10-2020-q4-major-win32\gcc-arm-none-eabi-10-2020-q4-major\arm-none-eabi\include\c++\10.2.1\bits\basic_string.h **** #endif
 525:c:\gcc-arm-none-eabi-10-2020-q4-major-win32\gcc-arm-none-eabi-10-2020-q4-major\arm-none-eabi\include\c++\10.2.1\bits\basic_string.h ****       basic_string(const _CharT* __s, const _Alloc& __a = _Alloc())
 526:c:\gcc-arm-none-eabi-10-2020-q4-major-win32\gcc-arm-none-eabi-10-2020-q4-major\arm-none-eabi\include\c++\10.2.1\bits\basic_string.h ****       : _M_dataplus(_M_local_data(), __a)
 527:c:\gcc-arm-none-eabi-10-2020-q4-major-win32\gcc-arm-none-eabi-10-2020-q4-major\arm-none-eabi\include\c++\10.2.1\bits\basic_string.h ****       { _M_construct(__s, __s ? __s + traits_type::length(__s) : __s+npos); }
 528:c:\gcc-arm-none-eabi-10-2020-q4-major-win32\gcc-arm-none-eabi-10-2020-q4-major\arm-none-eabi\include\c++\10.2.1\bits\basic_string.h **** 
 529:c:\gcc-arm-none-eabi-10-2020-q4-major-win32\gcc-arm-none-eabi-10-2020-q4-major\arm-none-eabi\include\c++\10.2.1\bits\basic_string.h ****       /**
ARM GAS  C:\Users\hoang\AppData\Local\Temp\ccNMsdI7.s 			page 16


 530:c:\gcc-arm-none-eabi-10-2020-q4-major-win32\gcc-arm-none-eabi-10-2020-q4-major\arm-none-eabi\include\c++\10.2.1\bits\basic_string.h ****        *  @brief  Construct string as multiple characters.
 531:c:\gcc-arm-none-eabi-10-2020-q4-major-win32\gcc-arm-none-eabi-10-2020-q4-major\arm-none-eabi\include\c++\10.2.1\bits\basic_string.h ****        *  @param  __n  Number of characters.
 532:c:\gcc-arm-none-eabi-10-2020-q4-major-win32\gcc-arm-none-eabi-10-2020-q4-major\arm-none-eabi\include\c++\10.2.1\bits\basic_string.h ****        *  @param  __c  Character to use.
 533:c:\gcc-arm-none-eabi-10-2020-q4-major-win32\gcc-arm-none-eabi-10-2020-q4-major\arm-none-eabi\include\c++\10.2.1\bits\basic_string.h ****        *  @param  __a  Allocator to use (default is default allocator).
 534:c:\gcc-arm-none-eabi-10-2020-q4-major-win32\gcc-arm-none-eabi-10-2020-q4-major\arm-none-eabi\include\c++\10.2.1\bits\basic_string.h ****        */
 535:c:\gcc-arm-none-eabi-10-2020-q4-major-win32\gcc-arm-none-eabi-10-2020-q4-major\arm-none-eabi\include\c++\10.2.1\bits\basic_string.h **** #if __cpp_deduction_guides && ! defined _GLIBCXX_DEFINING_STRING_INSTANTIATIONS
 536:c:\gcc-arm-none-eabi-10-2020-q4-major-win32\gcc-arm-none-eabi-10-2020-q4-major\arm-none-eabi\include\c++\10.2.1\bits\basic_string.h ****       // _GLIBCXX_RESOLVE_LIB_DEFECTS
 537:c:\gcc-arm-none-eabi-10-2020-q4-major-win32\gcc-arm-none-eabi-10-2020-q4-major\arm-none-eabi\include\c++\10.2.1\bits\basic_string.h ****       // 3076. basic_string CTAD ambiguity
 538:c:\gcc-arm-none-eabi-10-2020-q4-major-win32\gcc-arm-none-eabi-10-2020-q4-major\arm-none-eabi\include\c++\10.2.1\bits\basic_string.h ****       template<typename = _RequireAllocator<_Alloc>>
 539:c:\gcc-arm-none-eabi-10-2020-q4-major-win32\gcc-arm-none-eabi-10-2020-q4-major\arm-none-eabi\include\c++\10.2.1\bits\basic_string.h **** #endif
 540:c:\gcc-arm-none-eabi-10-2020-q4-major-win32\gcc-arm-none-eabi-10-2020-q4-major\arm-none-eabi\include\c++\10.2.1\bits\basic_string.h ****       basic_string(size_type __n, _CharT __c, const _Alloc& __a = _Alloc())
 541:c:\gcc-arm-none-eabi-10-2020-q4-major-win32\gcc-arm-none-eabi-10-2020-q4-major\arm-none-eabi\include\c++\10.2.1\bits\basic_string.h ****       : _M_dataplus(_M_local_data(), __a)
 542:c:\gcc-arm-none-eabi-10-2020-q4-major-win32\gcc-arm-none-eabi-10-2020-q4-major\arm-none-eabi\include\c++\10.2.1\bits\basic_string.h ****       { _M_construct(__n, __c); }
 543:c:\gcc-arm-none-eabi-10-2020-q4-major-win32\gcc-arm-none-eabi-10-2020-q4-major\arm-none-eabi\include\c++\10.2.1\bits\basic_string.h **** 
 544:c:\gcc-arm-none-eabi-10-2020-q4-major-win32\gcc-arm-none-eabi-10-2020-q4-major\arm-none-eabi\include\c++\10.2.1\bits\basic_string.h **** #if __cplusplus >= 201103L
 545:c:\gcc-arm-none-eabi-10-2020-q4-major-win32\gcc-arm-none-eabi-10-2020-q4-major\arm-none-eabi\include\c++\10.2.1\bits\basic_string.h ****       /**
 546:c:\gcc-arm-none-eabi-10-2020-q4-major-win32\gcc-arm-none-eabi-10-2020-q4-major\arm-none-eabi\include\c++\10.2.1\bits\basic_string.h ****        *  @brief  Move construct string.
 547:c:\gcc-arm-none-eabi-10-2020-q4-major-win32\gcc-arm-none-eabi-10-2020-q4-major\arm-none-eabi\include\c++\10.2.1\bits\basic_string.h ****        *  @param  __str  Source string.
 548:c:\gcc-arm-none-eabi-10-2020-q4-major-win32\gcc-arm-none-eabi-10-2020-q4-major\arm-none-eabi\include\c++\10.2.1\bits\basic_string.h ****        *
 549:c:\gcc-arm-none-eabi-10-2020-q4-major-win32\gcc-arm-none-eabi-10-2020-q4-major\arm-none-eabi\include\c++\10.2.1\bits\basic_string.h ****        *  The newly-created string contains the exact contents of @a __str.
 550:c:\gcc-arm-none-eabi-10-2020-q4-major-win32\gcc-arm-none-eabi-10-2020-q4-major\arm-none-eabi\include\c++\10.2.1\bits\basic_string.h ****        *  @a __str is a valid, but unspecified string.
 551:c:\gcc-arm-none-eabi-10-2020-q4-major-win32\gcc-arm-none-eabi-10-2020-q4-major\arm-none-eabi\include\c++\10.2.1\bits\basic_string.h ****        **/
 552:c:\gcc-arm-none-eabi-10-2020-q4-major-win32\gcc-arm-none-eabi-10-2020-q4-major\arm-none-eabi\include\c++\10.2.1\bits\basic_string.h ****       basic_string(basic_string&& __str) noexcept
 553:c:\gcc-arm-none-eabi-10-2020-q4-major-win32\gcc-arm-none-eabi-10-2020-q4-major\arm-none-eabi\include\c++\10.2.1\bits\basic_string.h ****       : _M_dataplus(_M_local_data(), std::move(__str._M_get_allocator()))
 554:c:\gcc-arm-none-eabi-10-2020-q4-major-win32\gcc-arm-none-eabi-10-2020-q4-major\arm-none-eabi\include\c++\10.2.1\bits\basic_string.h ****       {
 555:c:\gcc-arm-none-eabi-10-2020-q4-major-win32\gcc-arm-none-eabi-10-2020-q4-major\arm-none-eabi\include\c++\10.2.1\bits\basic_string.h **** 	if (__str._M_is_local())
 556:c:\gcc-arm-none-eabi-10-2020-q4-major-win32\gcc-arm-none-eabi-10-2020-q4-major\arm-none-eabi\include\c++\10.2.1\bits\basic_string.h **** 	  {
 557:c:\gcc-arm-none-eabi-10-2020-q4-major-win32\gcc-arm-none-eabi-10-2020-q4-major\arm-none-eabi\include\c++\10.2.1\bits\basic_string.h **** 	    traits_type::copy(_M_local_buf, __str._M_local_buf,
 558:c:\gcc-arm-none-eabi-10-2020-q4-major-win32\gcc-arm-none-eabi-10-2020-q4-major\arm-none-eabi\include\c++\10.2.1\bits\basic_string.h **** 			      _S_local_capacity + 1);
 559:c:\gcc-arm-none-eabi-10-2020-q4-major-win32\gcc-arm-none-eabi-10-2020-q4-major\arm-none-eabi\include\c++\10.2.1\bits\basic_string.h **** 	  }
 560:c:\gcc-arm-none-eabi-10-2020-q4-major-win32\gcc-arm-none-eabi-10-2020-q4-major\arm-none-eabi\include\c++\10.2.1\bits\basic_string.h **** 	else
 561:c:\gcc-arm-none-eabi-10-2020-q4-major-win32\gcc-arm-none-eabi-10-2020-q4-major\arm-none-eabi\include\c++\10.2.1\bits\basic_string.h **** 	  {
 562:c:\gcc-arm-none-eabi-10-2020-q4-major-win32\gcc-arm-none-eabi-10-2020-q4-major\arm-none-eabi\include\c++\10.2.1\bits\basic_string.h **** 	    _M_data(__str._M_data());
 563:c:\gcc-arm-none-eabi-10-2020-q4-major-win32\gcc-arm-none-eabi-10-2020-q4-major\arm-none-eabi\include\c++\10.2.1\bits\basic_string.h **** 	    _M_capacity(__str._M_allocated_capacity);
 564:c:\gcc-arm-none-eabi-10-2020-q4-major-win32\gcc-arm-none-eabi-10-2020-q4-major\arm-none-eabi\include\c++\10.2.1\bits\basic_string.h **** 	  }
 565:c:\gcc-arm-none-eabi-10-2020-q4-major-win32\gcc-arm-none-eabi-10-2020-q4-major\arm-none-eabi\include\c++\10.2.1\bits\basic_string.h **** 
 566:c:\gcc-arm-none-eabi-10-2020-q4-major-win32\gcc-arm-none-eabi-10-2020-q4-major\arm-none-eabi\include\c++\10.2.1\bits\basic_string.h **** 	// Must use _M_length() here not _M_set_length() because
 567:c:\gcc-arm-none-eabi-10-2020-q4-major-win32\gcc-arm-none-eabi-10-2020-q4-major\arm-none-eabi\include\c++\10.2.1\bits\basic_string.h **** 	// basic_stringbuf relies on writing into unallocated capacity so
 568:c:\gcc-arm-none-eabi-10-2020-q4-major-win32\gcc-arm-none-eabi-10-2020-q4-major\arm-none-eabi\include\c++\10.2.1\bits\basic_string.h **** 	// we mess up the contents if we put a '\0' in the string.
 569:c:\gcc-arm-none-eabi-10-2020-q4-major-win32\gcc-arm-none-eabi-10-2020-q4-major\arm-none-eabi\include\c++\10.2.1\bits\basic_string.h **** 	_M_length(__str.length());
 570:c:\gcc-arm-none-eabi-10-2020-q4-major-win32\gcc-arm-none-eabi-10-2020-q4-major\arm-none-eabi\include\c++\10.2.1\bits\basic_string.h **** 	__str._M_data(__str._M_local_data());
 571:c:\gcc-arm-none-eabi-10-2020-q4-major-win32\gcc-arm-none-eabi-10-2020-q4-major\arm-none-eabi\include\c++\10.2.1\bits\basic_string.h **** 	__str._M_set_length(0);
 572:c:\gcc-arm-none-eabi-10-2020-q4-major-win32\gcc-arm-none-eabi-10-2020-q4-major\arm-none-eabi\include\c++\10.2.1\bits\basic_string.h ****       }
 573:c:\gcc-arm-none-eabi-10-2020-q4-major-win32\gcc-arm-none-eabi-10-2020-q4-major\arm-none-eabi\include\c++\10.2.1\bits\basic_string.h **** 
 574:c:\gcc-arm-none-eabi-10-2020-q4-major-win32\gcc-arm-none-eabi-10-2020-q4-major\arm-none-eabi\include\c++\10.2.1\bits\basic_string.h ****       /**
 575:c:\gcc-arm-none-eabi-10-2020-q4-major-win32\gcc-arm-none-eabi-10-2020-q4-major\arm-none-eabi\include\c++\10.2.1\bits\basic_string.h ****        *  @brief  Construct string from an initializer %list.
 576:c:\gcc-arm-none-eabi-10-2020-q4-major-win32\gcc-arm-none-eabi-10-2020-q4-major\arm-none-eabi\include\c++\10.2.1\bits\basic_string.h ****        *  @param  __l  std::initializer_list of characters.
 577:c:\gcc-arm-none-eabi-10-2020-q4-major-win32\gcc-arm-none-eabi-10-2020-q4-major\arm-none-eabi\include\c++\10.2.1\bits\basic_string.h ****        *  @param  __a  Allocator to use (default is default allocator).
 578:c:\gcc-arm-none-eabi-10-2020-q4-major-win32\gcc-arm-none-eabi-10-2020-q4-major\arm-none-eabi\include\c++\10.2.1\bits\basic_string.h ****        */
 579:c:\gcc-arm-none-eabi-10-2020-q4-major-win32\gcc-arm-none-eabi-10-2020-q4-major\arm-none-eabi\include\c++\10.2.1\bits\basic_string.h ****       basic_string(initializer_list<_CharT> __l, const _Alloc& __a = _Alloc())
 580:c:\gcc-arm-none-eabi-10-2020-q4-major-win32\gcc-arm-none-eabi-10-2020-q4-major\arm-none-eabi\include\c++\10.2.1\bits\basic_string.h ****       : _M_dataplus(_M_local_data(), __a)
 581:c:\gcc-arm-none-eabi-10-2020-q4-major-win32\gcc-arm-none-eabi-10-2020-q4-major\arm-none-eabi\include\c++\10.2.1\bits\basic_string.h ****       { _M_construct(__l.begin(), __l.end()); }
 582:c:\gcc-arm-none-eabi-10-2020-q4-major-win32\gcc-arm-none-eabi-10-2020-q4-major\arm-none-eabi\include\c++\10.2.1\bits\basic_string.h **** 
 583:c:\gcc-arm-none-eabi-10-2020-q4-major-win32\gcc-arm-none-eabi-10-2020-q4-major\arm-none-eabi\include\c++\10.2.1\bits\basic_string.h ****       basic_string(const basic_string& __str, const _Alloc& __a)
 584:c:\gcc-arm-none-eabi-10-2020-q4-major-win32\gcc-arm-none-eabi-10-2020-q4-major\arm-none-eabi\include\c++\10.2.1\bits\basic_string.h ****       : _M_dataplus(_M_local_data(), __a)
 585:c:\gcc-arm-none-eabi-10-2020-q4-major-win32\gcc-arm-none-eabi-10-2020-q4-major\arm-none-eabi\include\c++\10.2.1\bits\basic_string.h ****       { _M_construct(__str.begin(), __str.end()); }
 586:c:\gcc-arm-none-eabi-10-2020-q4-major-win32\gcc-arm-none-eabi-10-2020-q4-major\arm-none-eabi\include\c++\10.2.1\bits\basic_string.h **** 
ARM GAS  C:\Users\hoang\AppData\Local\Temp\ccNMsdI7.s 			page 17


 587:c:\gcc-arm-none-eabi-10-2020-q4-major-win32\gcc-arm-none-eabi-10-2020-q4-major\arm-none-eabi\include\c++\10.2.1\bits\basic_string.h ****       basic_string(basic_string&& __str, const _Alloc& __a)
 588:c:\gcc-arm-none-eabi-10-2020-q4-major-win32\gcc-arm-none-eabi-10-2020-q4-major\arm-none-eabi\include\c++\10.2.1\bits\basic_string.h ****       noexcept(_Alloc_traits::_S_always_equal())
 589:c:\gcc-arm-none-eabi-10-2020-q4-major-win32\gcc-arm-none-eabi-10-2020-q4-major\arm-none-eabi\include\c++\10.2.1\bits\basic_string.h ****       : _M_dataplus(_M_local_data(), __a)
 590:c:\gcc-arm-none-eabi-10-2020-q4-major-win32\gcc-arm-none-eabi-10-2020-q4-major\arm-none-eabi\include\c++\10.2.1\bits\basic_string.h ****       {
 591:c:\gcc-arm-none-eabi-10-2020-q4-major-win32\gcc-arm-none-eabi-10-2020-q4-major\arm-none-eabi\include\c++\10.2.1\bits\basic_string.h **** 	if (__str._M_is_local())
 592:c:\gcc-arm-none-eabi-10-2020-q4-major-win32\gcc-arm-none-eabi-10-2020-q4-major\arm-none-eabi\include\c++\10.2.1\bits\basic_string.h **** 	  {
 593:c:\gcc-arm-none-eabi-10-2020-q4-major-win32\gcc-arm-none-eabi-10-2020-q4-major\arm-none-eabi\include\c++\10.2.1\bits\basic_string.h **** 	    traits_type::copy(_M_local_buf, __str._M_local_buf,
 594:c:\gcc-arm-none-eabi-10-2020-q4-major-win32\gcc-arm-none-eabi-10-2020-q4-major\arm-none-eabi\include\c++\10.2.1\bits\basic_string.h **** 			      _S_local_capacity + 1);
 595:c:\gcc-arm-none-eabi-10-2020-q4-major-win32\gcc-arm-none-eabi-10-2020-q4-major\arm-none-eabi\include\c++\10.2.1\bits\basic_string.h **** 	    _M_length(__str.length());
 596:c:\gcc-arm-none-eabi-10-2020-q4-major-win32\gcc-arm-none-eabi-10-2020-q4-major\arm-none-eabi\include\c++\10.2.1\bits\basic_string.h **** 	    __str._M_set_length(0);
 597:c:\gcc-arm-none-eabi-10-2020-q4-major-win32\gcc-arm-none-eabi-10-2020-q4-major\arm-none-eabi\include\c++\10.2.1\bits\basic_string.h **** 	  }
 598:c:\gcc-arm-none-eabi-10-2020-q4-major-win32\gcc-arm-none-eabi-10-2020-q4-major\arm-none-eabi\include\c++\10.2.1\bits\basic_string.h **** 	else if (_Alloc_traits::_S_always_equal()
 599:c:\gcc-arm-none-eabi-10-2020-q4-major-win32\gcc-arm-none-eabi-10-2020-q4-major\arm-none-eabi\include\c++\10.2.1\bits\basic_string.h **** 	    || __str.get_allocator() == __a)
 600:c:\gcc-arm-none-eabi-10-2020-q4-major-win32\gcc-arm-none-eabi-10-2020-q4-major\arm-none-eabi\include\c++\10.2.1\bits\basic_string.h **** 	  {
 601:c:\gcc-arm-none-eabi-10-2020-q4-major-win32\gcc-arm-none-eabi-10-2020-q4-major\arm-none-eabi\include\c++\10.2.1\bits\basic_string.h **** 	    _M_data(__str._M_data());
 602:c:\gcc-arm-none-eabi-10-2020-q4-major-win32\gcc-arm-none-eabi-10-2020-q4-major\arm-none-eabi\include\c++\10.2.1\bits\basic_string.h **** 	    _M_length(__str.length());
 603:c:\gcc-arm-none-eabi-10-2020-q4-major-win32\gcc-arm-none-eabi-10-2020-q4-major\arm-none-eabi\include\c++\10.2.1\bits\basic_string.h **** 	    _M_capacity(__str._M_allocated_capacity);
 604:c:\gcc-arm-none-eabi-10-2020-q4-major-win32\gcc-arm-none-eabi-10-2020-q4-major\arm-none-eabi\include\c++\10.2.1\bits\basic_string.h **** 	    __str._M_data(__str._M_local_buf);
 605:c:\gcc-arm-none-eabi-10-2020-q4-major-win32\gcc-arm-none-eabi-10-2020-q4-major\arm-none-eabi\include\c++\10.2.1\bits\basic_string.h **** 	    __str._M_set_length(0);
 606:c:\gcc-arm-none-eabi-10-2020-q4-major-win32\gcc-arm-none-eabi-10-2020-q4-major\arm-none-eabi\include\c++\10.2.1\bits\basic_string.h **** 	  }
 607:c:\gcc-arm-none-eabi-10-2020-q4-major-win32\gcc-arm-none-eabi-10-2020-q4-major\arm-none-eabi\include\c++\10.2.1\bits\basic_string.h **** 	else
 608:c:\gcc-arm-none-eabi-10-2020-q4-major-win32\gcc-arm-none-eabi-10-2020-q4-major\arm-none-eabi\include\c++\10.2.1\bits\basic_string.h **** 	  _M_construct(__str.begin(), __str.end());
 609:c:\gcc-arm-none-eabi-10-2020-q4-major-win32\gcc-arm-none-eabi-10-2020-q4-major\arm-none-eabi\include\c++\10.2.1\bits\basic_string.h ****       }
 610:c:\gcc-arm-none-eabi-10-2020-q4-major-win32\gcc-arm-none-eabi-10-2020-q4-major\arm-none-eabi\include\c++\10.2.1\bits\basic_string.h **** 
 611:c:\gcc-arm-none-eabi-10-2020-q4-major-win32\gcc-arm-none-eabi-10-2020-q4-major\arm-none-eabi\include\c++\10.2.1\bits\basic_string.h **** #endif // C++11
 612:c:\gcc-arm-none-eabi-10-2020-q4-major-win32\gcc-arm-none-eabi-10-2020-q4-major\arm-none-eabi\include\c++\10.2.1\bits\basic_string.h **** 
 613:c:\gcc-arm-none-eabi-10-2020-q4-major-win32\gcc-arm-none-eabi-10-2020-q4-major\arm-none-eabi\include\c++\10.2.1\bits\basic_string.h ****       /**
 614:c:\gcc-arm-none-eabi-10-2020-q4-major-win32\gcc-arm-none-eabi-10-2020-q4-major\arm-none-eabi\include\c++\10.2.1\bits\basic_string.h ****        *  @brief  Construct string as copy of a range.
 615:c:\gcc-arm-none-eabi-10-2020-q4-major-win32\gcc-arm-none-eabi-10-2020-q4-major\arm-none-eabi\include\c++\10.2.1\bits\basic_string.h ****        *  @param  __beg  Start of range.
 616:c:\gcc-arm-none-eabi-10-2020-q4-major-win32\gcc-arm-none-eabi-10-2020-q4-major\arm-none-eabi\include\c++\10.2.1\bits\basic_string.h ****        *  @param  __end  End of range.
 617:c:\gcc-arm-none-eabi-10-2020-q4-major-win32\gcc-arm-none-eabi-10-2020-q4-major\arm-none-eabi\include\c++\10.2.1\bits\basic_string.h ****        *  @param  __a  Allocator to use (default is default allocator).
 618:c:\gcc-arm-none-eabi-10-2020-q4-major-win32\gcc-arm-none-eabi-10-2020-q4-major\arm-none-eabi\include\c++\10.2.1\bits\basic_string.h ****        */
 619:c:\gcc-arm-none-eabi-10-2020-q4-major-win32\gcc-arm-none-eabi-10-2020-q4-major\arm-none-eabi\include\c++\10.2.1\bits\basic_string.h **** #if __cplusplus >= 201103L
 620:c:\gcc-arm-none-eabi-10-2020-q4-major-win32\gcc-arm-none-eabi-10-2020-q4-major\arm-none-eabi\include\c++\10.2.1\bits\basic_string.h ****       template<typename _InputIterator,
 621:c:\gcc-arm-none-eabi-10-2020-q4-major-win32\gcc-arm-none-eabi-10-2020-q4-major\arm-none-eabi\include\c++\10.2.1\bits\basic_string.h **** 	       typename = std::_RequireInputIter<_InputIterator>>
 622:c:\gcc-arm-none-eabi-10-2020-q4-major-win32\gcc-arm-none-eabi-10-2020-q4-major\arm-none-eabi\include\c++\10.2.1\bits\basic_string.h **** #else
 623:c:\gcc-arm-none-eabi-10-2020-q4-major-win32\gcc-arm-none-eabi-10-2020-q4-major\arm-none-eabi\include\c++\10.2.1\bits\basic_string.h ****       template<typename _InputIterator>
 624:c:\gcc-arm-none-eabi-10-2020-q4-major-win32\gcc-arm-none-eabi-10-2020-q4-major\arm-none-eabi\include\c++\10.2.1\bits\basic_string.h **** #endif
 625:c:\gcc-arm-none-eabi-10-2020-q4-major-win32\gcc-arm-none-eabi-10-2020-q4-major\arm-none-eabi\include\c++\10.2.1\bits\basic_string.h ****         basic_string(_InputIterator __beg, _InputIterator __end,
 626:c:\gcc-arm-none-eabi-10-2020-q4-major-win32\gcc-arm-none-eabi-10-2020-q4-major\arm-none-eabi\include\c++\10.2.1\bits\basic_string.h **** 		     const _Alloc& __a = _Alloc())
 627:c:\gcc-arm-none-eabi-10-2020-q4-major-win32\gcc-arm-none-eabi-10-2020-q4-major\arm-none-eabi\include\c++\10.2.1\bits\basic_string.h **** 	: _M_dataplus(_M_local_data(), __a)
 628:c:\gcc-arm-none-eabi-10-2020-q4-major-win32\gcc-arm-none-eabi-10-2020-q4-major\arm-none-eabi\include\c++\10.2.1\bits\basic_string.h **** 	{ _M_construct(__beg, __end); }
 629:c:\gcc-arm-none-eabi-10-2020-q4-major-win32\gcc-arm-none-eabi-10-2020-q4-major\arm-none-eabi\include\c++\10.2.1\bits\basic_string.h **** 
 630:c:\gcc-arm-none-eabi-10-2020-q4-major-win32\gcc-arm-none-eabi-10-2020-q4-major\arm-none-eabi\include\c++\10.2.1\bits\basic_string.h **** #if __cplusplus >= 201703L
 631:c:\gcc-arm-none-eabi-10-2020-q4-major-win32\gcc-arm-none-eabi-10-2020-q4-major\arm-none-eabi\include\c++\10.2.1\bits\basic_string.h ****       /**
 632:c:\gcc-arm-none-eabi-10-2020-q4-major-win32\gcc-arm-none-eabi-10-2020-q4-major\arm-none-eabi\include\c++\10.2.1\bits\basic_string.h ****        *  @brief  Construct string from a substring of a string_view.
 633:c:\gcc-arm-none-eabi-10-2020-q4-major-win32\gcc-arm-none-eabi-10-2020-q4-major\arm-none-eabi\include\c++\10.2.1\bits\basic_string.h ****        *  @param  __t   Source object convertible to string view.
 634:c:\gcc-arm-none-eabi-10-2020-q4-major-win32\gcc-arm-none-eabi-10-2020-q4-major\arm-none-eabi\include\c++\10.2.1\bits\basic_string.h ****        *  @param  __pos The index of the first character to copy from __t.
 635:c:\gcc-arm-none-eabi-10-2020-q4-major-win32\gcc-arm-none-eabi-10-2020-q4-major\arm-none-eabi\include\c++\10.2.1\bits\basic_string.h ****        *  @param  __n   The number of characters to copy from __t.
 636:c:\gcc-arm-none-eabi-10-2020-q4-major-win32\gcc-arm-none-eabi-10-2020-q4-major\arm-none-eabi\include\c++\10.2.1\bits\basic_string.h ****        *  @param  __a   Allocator to use.
 637:c:\gcc-arm-none-eabi-10-2020-q4-major-win32\gcc-arm-none-eabi-10-2020-q4-major\arm-none-eabi\include\c++\10.2.1\bits\basic_string.h ****        */
 638:c:\gcc-arm-none-eabi-10-2020-q4-major-win32\gcc-arm-none-eabi-10-2020-q4-major\arm-none-eabi\include\c++\10.2.1\bits\basic_string.h ****       template<typename _Tp, typename = _If_sv<_Tp, void>>
 639:c:\gcc-arm-none-eabi-10-2020-q4-major-win32\gcc-arm-none-eabi-10-2020-q4-major\arm-none-eabi\include\c++\10.2.1\bits\basic_string.h **** 	basic_string(const _Tp& __t, size_type __pos, size_type __n,
 640:c:\gcc-arm-none-eabi-10-2020-q4-major-win32\gcc-arm-none-eabi-10-2020-q4-major\arm-none-eabi\include\c++\10.2.1\bits\basic_string.h **** 		     const _Alloc& __a = _Alloc())
 641:c:\gcc-arm-none-eabi-10-2020-q4-major-win32\gcc-arm-none-eabi-10-2020-q4-major\arm-none-eabi\include\c++\10.2.1\bits\basic_string.h **** 	: basic_string(_S_to_string_view(__t).substr(__pos, __n), __a) { }
 642:c:\gcc-arm-none-eabi-10-2020-q4-major-win32\gcc-arm-none-eabi-10-2020-q4-major\arm-none-eabi\include\c++\10.2.1\bits\basic_string.h **** 
 643:c:\gcc-arm-none-eabi-10-2020-q4-major-win32\gcc-arm-none-eabi-10-2020-q4-major\arm-none-eabi\include\c++\10.2.1\bits\basic_string.h ****       /**
ARM GAS  C:\Users\hoang\AppData\Local\Temp\ccNMsdI7.s 			page 18


 644:c:\gcc-arm-none-eabi-10-2020-q4-major-win32\gcc-arm-none-eabi-10-2020-q4-major\arm-none-eabi\include\c++\10.2.1\bits\basic_string.h ****        *  @brief  Construct string from a string_view.
 645:c:\gcc-arm-none-eabi-10-2020-q4-major-win32\gcc-arm-none-eabi-10-2020-q4-major\arm-none-eabi\include\c++\10.2.1\bits\basic_string.h ****        *  @param  __t  Source object convertible to string view.
 646:c:\gcc-arm-none-eabi-10-2020-q4-major-win32\gcc-arm-none-eabi-10-2020-q4-major\arm-none-eabi\include\c++\10.2.1\bits\basic_string.h ****        *  @param  __a  Allocator to use (default is default allocator).
 647:c:\gcc-arm-none-eabi-10-2020-q4-major-win32\gcc-arm-none-eabi-10-2020-q4-major\arm-none-eabi\include\c++\10.2.1\bits\basic_string.h ****        */
 648:c:\gcc-arm-none-eabi-10-2020-q4-major-win32\gcc-arm-none-eabi-10-2020-q4-major\arm-none-eabi\include\c++\10.2.1\bits\basic_string.h ****       template<typename _Tp, typename = _If_sv<_Tp, void>>
 649:c:\gcc-arm-none-eabi-10-2020-q4-major-win32\gcc-arm-none-eabi-10-2020-q4-major\arm-none-eabi\include\c++\10.2.1\bits\basic_string.h **** 	explicit
 650:c:\gcc-arm-none-eabi-10-2020-q4-major-win32\gcc-arm-none-eabi-10-2020-q4-major\arm-none-eabi\include\c++\10.2.1\bits\basic_string.h **** 	basic_string(const _Tp& __t, const _Alloc& __a = _Alloc())
 651:c:\gcc-arm-none-eabi-10-2020-q4-major-win32\gcc-arm-none-eabi-10-2020-q4-major\arm-none-eabi\include\c++\10.2.1\bits\basic_string.h **** 	: basic_string(__sv_wrapper(_S_to_string_view(__t)), __a) { }
 652:c:\gcc-arm-none-eabi-10-2020-q4-major-win32\gcc-arm-none-eabi-10-2020-q4-major\arm-none-eabi\include\c++\10.2.1\bits\basic_string.h **** #endif // C++17
 653:c:\gcc-arm-none-eabi-10-2020-q4-major-win32\gcc-arm-none-eabi-10-2020-q4-major\arm-none-eabi\include\c++\10.2.1\bits\basic_string.h **** 
 654:c:\gcc-arm-none-eabi-10-2020-q4-major-win32\gcc-arm-none-eabi-10-2020-q4-major\arm-none-eabi\include\c++\10.2.1\bits\basic_string.h ****       /**
 655:c:\gcc-arm-none-eabi-10-2020-q4-major-win32\gcc-arm-none-eabi-10-2020-q4-major\arm-none-eabi\include\c++\10.2.1\bits\basic_string.h ****        *  @brief  Destroy the string instance.
 656:c:\gcc-arm-none-eabi-10-2020-q4-major-win32\gcc-arm-none-eabi-10-2020-q4-major\arm-none-eabi\include\c++\10.2.1\bits\basic_string.h ****        */
 657:c:\gcc-arm-none-eabi-10-2020-q4-major-win32\gcc-arm-none-eabi-10-2020-q4-major\arm-none-eabi\include\c++\10.2.1\bits\basic_string.h ****       ~basic_string()
 658:c:\gcc-arm-none-eabi-10-2020-q4-major-win32\gcc-arm-none-eabi-10-2020-q4-major\arm-none-eabi\include\c++\10.2.1\bits\basic_string.h ****       { _M_dispose(); }
 659:c:\gcc-arm-none-eabi-10-2020-q4-major-win32\gcc-arm-none-eabi-10-2020-q4-major\arm-none-eabi\include\c++\10.2.1\bits\basic_string.h **** 
 660:c:\gcc-arm-none-eabi-10-2020-q4-major-win32\gcc-arm-none-eabi-10-2020-q4-major\arm-none-eabi\include\c++\10.2.1\bits\basic_string.h ****       /**
 661:c:\gcc-arm-none-eabi-10-2020-q4-major-win32\gcc-arm-none-eabi-10-2020-q4-major\arm-none-eabi\include\c++\10.2.1\bits\basic_string.h ****        *  @brief  Assign the value of @a str to this string.
 662:c:\gcc-arm-none-eabi-10-2020-q4-major-win32\gcc-arm-none-eabi-10-2020-q4-major\arm-none-eabi\include\c++\10.2.1\bits\basic_string.h ****        *  @param  __str  Source string.
 663:c:\gcc-arm-none-eabi-10-2020-q4-major-win32\gcc-arm-none-eabi-10-2020-q4-major\arm-none-eabi\include\c++\10.2.1\bits\basic_string.h ****        */
 664:c:\gcc-arm-none-eabi-10-2020-q4-major-win32\gcc-arm-none-eabi-10-2020-q4-major\arm-none-eabi\include\c++\10.2.1\bits\basic_string.h ****       basic_string&
 665:c:\gcc-arm-none-eabi-10-2020-q4-major-win32\gcc-arm-none-eabi-10-2020-q4-major\arm-none-eabi\include\c++\10.2.1\bits\basic_string.h ****       operator=(const basic_string& __str)
 666:c:\gcc-arm-none-eabi-10-2020-q4-major-win32\gcc-arm-none-eabi-10-2020-q4-major\arm-none-eabi\include\c++\10.2.1\bits\basic_string.h ****       {
 667:c:\gcc-arm-none-eabi-10-2020-q4-major-win32\gcc-arm-none-eabi-10-2020-q4-major\arm-none-eabi\include\c++\10.2.1\bits\basic_string.h **** 	return this->assign(__str);
 668:c:\gcc-arm-none-eabi-10-2020-q4-major-win32\gcc-arm-none-eabi-10-2020-q4-major\arm-none-eabi\include\c++\10.2.1\bits\basic_string.h ****       }
 669:c:\gcc-arm-none-eabi-10-2020-q4-major-win32\gcc-arm-none-eabi-10-2020-q4-major\arm-none-eabi\include\c++\10.2.1\bits\basic_string.h **** 
 670:c:\gcc-arm-none-eabi-10-2020-q4-major-win32\gcc-arm-none-eabi-10-2020-q4-major\arm-none-eabi\include\c++\10.2.1\bits\basic_string.h ****       /**
 671:c:\gcc-arm-none-eabi-10-2020-q4-major-win32\gcc-arm-none-eabi-10-2020-q4-major\arm-none-eabi\include\c++\10.2.1\bits\basic_string.h ****        *  @brief  Copy contents of @a s into this string.
 672:c:\gcc-arm-none-eabi-10-2020-q4-major-win32\gcc-arm-none-eabi-10-2020-q4-major\arm-none-eabi\include\c++\10.2.1\bits\basic_string.h ****        *  @param  __s  Source null-terminated string.
 673:c:\gcc-arm-none-eabi-10-2020-q4-major-win32\gcc-arm-none-eabi-10-2020-q4-major\arm-none-eabi\include\c++\10.2.1\bits\basic_string.h ****        */
 674:c:\gcc-arm-none-eabi-10-2020-q4-major-win32\gcc-arm-none-eabi-10-2020-q4-major\arm-none-eabi\include\c++\10.2.1\bits\basic_string.h ****       basic_string&
 675:c:\gcc-arm-none-eabi-10-2020-q4-major-win32\gcc-arm-none-eabi-10-2020-q4-major\arm-none-eabi\include\c++\10.2.1\bits\basic_string.h ****       operator=(const _CharT* __s)
 676:c:\gcc-arm-none-eabi-10-2020-q4-major-win32\gcc-arm-none-eabi-10-2020-q4-major\arm-none-eabi\include\c++\10.2.1\bits\basic_string.h ****       { return this->assign(__s); }
 677:c:\gcc-arm-none-eabi-10-2020-q4-major-win32\gcc-arm-none-eabi-10-2020-q4-major\arm-none-eabi\include\c++\10.2.1\bits\basic_string.h **** 
 678:c:\gcc-arm-none-eabi-10-2020-q4-major-win32\gcc-arm-none-eabi-10-2020-q4-major\arm-none-eabi\include\c++\10.2.1\bits\basic_string.h ****       /**
 679:c:\gcc-arm-none-eabi-10-2020-q4-major-win32\gcc-arm-none-eabi-10-2020-q4-major\arm-none-eabi\include\c++\10.2.1\bits\basic_string.h ****        *  @brief  Set value to string of length 1.
 680:c:\gcc-arm-none-eabi-10-2020-q4-major-win32\gcc-arm-none-eabi-10-2020-q4-major\arm-none-eabi\include\c++\10.2.1\bits\basic_string.h ****        *  @param  __c  Source character.
 681:c:\gcc-arm-none-eabi-10-2020-q4-major-win32\gcc-arm-none-eabi-10-2020-q4-major\arm-none-eabi\include\c++\10.2.1\bits\basic_string.h ****        *
 682:c:\gcc-arm-none-eabi-10-2020-q4-major-win32\gcc-arm-none-eabi-10-2020-q4-major\arm-none-eabi\include\c++\10.2.1\bits\basic_string.h ****        *  Assigning to a character makes this string length 1 and
 683:c:\gcc-arm-none-eabi-10-2020-q4-major-win32\gcc-arm-none-eabi-10-2020-q4-major\arm-none-eabi\include\c++\10.2.1\bits\basic_string.h ****        *  (*this)[0] == @a c.
 684:c:\gcc-arm-none-eabi-10-2020-q4-major-win32\gcc-arm-none-eabi-10-2020-q4-major\arm-none-eabi\include\c++\10.2.1\bits\basic_string.h ****        */
 685:c:\gcc-arm-none-eabi-10-2020-q4-major-win32\gcc-arm-none-eabi-10-2020-q4-major\arm-none-eabi\include\c++\10.2.1\bits\basic_string.h ****       basic_string&
 686:c:\gcc-arm-none-eabi-10-2020-q4-major-win32\gcc-arm-none-eabi-10-2020-q4-major\arm-none-eabi\include\c++\10.2.1\bits\basic_string.h ****       operator=(_CharT __c)
 687:c:\gcc-arm-none-eabi-10-2020-q4-major-win32\gcc-arm-none-eabi-10-2020-q4-major\arm-none-eabi\include\c++\10.2.1\bits\basic_string.h ****       {
 688:c:\gcc-arm-none-eabi-10-2020-q4-major-win32\gcc-arm-none-eabi-10-2020-q4-major\arm-none-eabi\include\c++\10.2.1\bits\basic_string.h **** 	this->assign(1, __c);
 689:c:\gcc-arm-none-eabi-10-2020-q4-major-win32\gcc-arm-none-eabi-10-2020-q4-major\arm-none-eabi\include\c++\10.2.1\bits\basic_string.h **** 	return *this;
 690:c:\gcc-arm-none-eabi-10-2020-q4-major-win32\gcc-arm-none-eabi-10-2020-q4-major\arm-none-eabi\include\c++\10.2.1\bits\basic_string.h ****       }
 691:c:\gcc-arm-none-eabi-10-2020-q4-major-win32\gcc-arm-none-eabi-10-2020-q4-major\arm-none-eabi\include\c++\10.2.1\bits\basic_string.h **** 
 692:c:\gcc-arm-none-eabi-10-2020-q4-major-win32\gcc-arm-none-eabi-10-2020-q4-major\arm-none-eabi\include\c++\10.2.1\bits\basic_string.h **** #if __cplusplus >= 201103L
 693:c:\gcc-arm-none-eabi-10-2020-q4-major-win32\gcc-arm-none-eabi-10-2020-q4-major\arm-none-eabi\include\c++\10.2.1\bits\basic_string.h ****       /**
 694:c:\gcc-arm-none-eabi-10-2020-q4-major-win32\gcc-arm-none-eabi-10-2020-q4-major\arm-none-eabi\include\c++\10.2.1\bits\basic_string.h ****        *  @brief  Move assign the value of @a str to this string.
 695:c:\gcc-arm-none-eabi-10-2020-q4-major-win32\gcc-arm-none-eabi-10-2020-q4-major\arm-none-eabi\include\c++\10.2.1\bits\basic_string.h ****        *  @param  __str  Source string.
 696:c:\gcc-arm-none-eabi-10-2020-q4-major-win32\gcc-arm-none-eabi-10-2020-q4-major\arm-none-eabi\include\c++\10.2.1\bits\basic_string.h ****        *
 697:c:\gcc-arm-none-eabi-10-2020-q4-major-win32\gcc-arm-none-eabi-10-2020-q4-major\arm-none-eabi\include\c++\10.2.1\bits\basic_string.h ****        *  The contents of @a str are moved into this string (without copying).
 698:c:\gcc-arm-none-eabi-10-2020-q4-major-win32\gcc-arm-none-eabi-10-2020-q4-major\arm-none-eabi\include\c++\10.2.1\bits\basic_string.h ****        *  @a str is a valid, but unspecified string.
 699:c:\gcc-arm-none-eabi-10-2020-q4-major-win32\gcc-arm-none-eabi-10-2020-q4-major\arm-none-eabi\include\c++\10.2.1\bits\basic_string.h ****        **/
 700:c:\gcc-arm-none-eabi-10-2020-q4-major-win32\gcc-arm-none-eabi-10-2020-q4-major\arm-none-eabi\include\c++\10.2.1\bits\basic_string.h ****       // _GLIBCXX_RESOLVE_LIB_DEFECTS
ARM GAS  C:\Users\hoang\AppData\Local\Temp\ccNMsdI7.s 			page 19


 701:c:\gcc-arm-none-eabi-10-2020-q4-major-win32\gcc-arm-none-eabi-10-2020-q4-major\arm-none-eabi\include\c++\10.2.1\bits\basic_string.h ****       // 2063. Contradictory requirements for string move assignment
 702:c:\gcc-arm-none-eabi-10-2020-q4-major-win32\gcc-arm-none-eabi-10-2020-q4-major\arm-none-eabi\include\c++\10.2.1\bits\basic_string.h ****       basic_string&
 703:c:\gcc-arm-none-eabi-10-2020-q4-major-win32\gcc-arm-none-eabi-10-2020-q4-major\arm-none-eabi\include\c++\10.2.1\bits\basic_string.h ****       operator=(basic_string&& __str)
 704:c:\gcc-arm-none-eabi-10-2020-q4-major-win32\gcc-arm-none-eabi-10-2020-q4-major\arm-none-eabi\include\c++\10.2.1\bits\basic_string.h ****       noexcept(_Alloc_traits::_S_nothrow_move())
 705:c:\gcc-arm-none-eabi-10-2020-q4-major-win32\gcc-arm-none-eabi-10-2020-q4-major\arm-none-eabi\include\c++\10.2.1\bits\basic_string.h ****       {
 706:c:\gcc-arm-none-eabi-10-2020-q4-major-win32\gcc-arm-none-eabi-10-2020-q4-major\arm-none-eabi\include\c++\10.2.1\bits\basic_string.h **** 	if (!_M_is_local() && _Alloc_traits::_S_propagate_on_move_assign()
 707:c:\gcc-arm-none-eabi-10-2020-q4-major-win32\gcc-arm-none-eabi-10-2020-q4-major\arm-none-eabi\include\c++\10.2.1\bits\basic_string.h **** 	    && !_Alloc_traits::_S_always_equal()
 708:c:\gcc-arm-none-eabi-10-2020-q4-major-win32\gcc-arm-none-eabi-10-2020-q4-major\arm-none-eabi\include\c++\10.2.1\bits\basic_string.h **** 	    && _M_get_allocator() != __str._M_get_allocator())
 709:c:\gcc-arm-none-eabi-10-2020-q4-major-win32\gcc-arm-none-eabi-10-2020-q4-major\arm-none-eabi\include\c++\10.2.1\bits\basic_string.h **** 	  {
 710:c:\gcc-arm-none-eabi-10-2020-q4-major-win32\gcc-arm-none-eabi-10-2020-q4-major\arm-none-eabi\include\c++\10.2.1\bits\basic_string.h **** 	    // Destroy existing storage before replacing allocator.
 711:c:\gcc-arm-none-eabi-10-2020-q4-major-win32\gcc-arm-none-eabi-10-2020-q4-major\arm-none-eabi\include\c++\10.2.1\bits\basic_string.h **** 	    _M_destroy(_M_allocated_capacity);
 712:c:\gcc-arm-none-eabi-10-2020-q4-major-win32\gcc-arm-none-eabi-10-2020-q4-major\arm-none-eabi\include\c++\10.2.1\bits\basic_string.h **** 	    _M_data(_M_local_data());
 713:c:\gcc-arm-none-eabi-10-2020-q4-major-win32\gcc-arm-none-eabi-10-2020-q4-major\arm-none-eabi\include\c++\10.2.1\bits\basic_string.h **** 	    _M_set_length(0);
 714:c:\gcc-arm-none-eabi-10-2020-q4-major-win32\gcc-arm-none-eabi-10-2020-q4-major\arm-none-eabi\include\c++\10.2.1\bits\basic_string.h **** 	  }
 715:c:\gcc-arm-none-eabi-10-2020-q4-major-win32\gcc-arm-none-eabi-10-2020-q4-major\arm-none-eabi\include\c++\10.2.1\bits\basic_string.h **** 	// Replace allocator if POCMA is true.
 716:c:\gcc-arm-none-eabi-10-2020-q4-major-win32\gcc-arm-none-eabi-10-2020-q4-major\arm-none-eabi\include\c++\10.2.1\bits\basic_string.h **** 	std::__alloc_on_move(_M_get_allocator(), __str._M_get_allocator());
 717:c:\gcc-arm-none-eabi-10-2020-q4-major-win32\gcc-arm-none-eabi-10-2020-q4-major\arm-none-eabi\include\c++\10.2.1\bits\basic_string.h **** 
 718:c:\gcc-arm-none-eabi-10-2020-q4-major-win32\gcc-arm-none-eabi-10-2020-q4-major\arm-none-eabi\include\c++\10.2.1\bits\basic_string.h **** 	if (__str._M_is_local())
 719:c:\gcc-arm-none-eabi-10-2020-q4-major-win32\gcc-arm-none-eabi-10-2020-q4-major\arm-none-eabi\include\c++\10.2.1\bits\basic_string.h **** 	  {
 720:c:\gcc-arm-none-eabi-10-2020-q4-major-win32\gcc-arm-none-eabi-10-2020-q4-major\arm-none-eabi\include\c++\10.2.1\bits\basic_string.h **** 	    // We've always got room for a short string, just copy it.
 721:c:\gcc-arm-none-eabi-10-2020-q4-major-win32\gcc-arm-none-eabi-10-2020-q4-major\arm-none-eabi\include\c++\10.2.1\bits\basic_string.h **** 	    if (__str.size())
 722:c:\gcc-arm-none-eabi-10-2020-q4-major-win32\gcc-arm-none-eabi-10-2020-q4-major\arm-none-eabi\include\c++\10.2.1\bits\basic_string.h **** 	      this->_S_copy(_M_data(), __str._M_data(), __str.size());
 723:c:\gcc-arm-none-eabi-10-2020-q4-major-win32\gcc-arm-none-eabi-10-2020-q4-major\arm-none-eabi\include\c++\10.2.1\bits\basic_string.h **** 	    _M_set_length(__str.size());
 724:c:\gcc-arm-none-eabi-10-2020-q4-major-win32\gcc-arm-none-eabi-10-2020-q4-major\arm-none-eabi\include\c++\10.2.1\bits\basic_string.h **** 	  }
 725:c:\gcc-arm-none-eabi-10-2020-q4-major-win32\gcc-arm-none-eabi-10-2020-q4-major\arm-none-eabi\include\c++\10.2.1\bits\basic_string.h **** 	else if (_Alloc_traits::_S_propagate_on_move_assign()
 726:c:\gcc-arm-none-eabi-10-2020-q4-major-win32\gcc-arm-none-eabi-10-2020-q4-major\arm-none-eabi\include\c++\10.2.1\bits\basic_string.h **** 	    || _Alloc_traits::_S_always_equal()
 727:c:\gcc-arm-none-eabi-10-2020-q4-major-win32\gcc-arm-none-eabi-10-2020-q4-major\arm-none-eabi\include\c++\10.2.1\bits\basic_string.h **** 	    || _M_get_allocator() == __str._M_get_allocator())
 728:c:\gcc-arm-none-eabi-10-2020-q4-major-win32\gcc-arm-none-eabi-10-2020-q4-major\arm-none-eabi\include\c++\10.2.1\bits\basic_string.h **** 	  {
 729:c:\gcc-arm-none-eabi-10-2020-q4-major-win32\gcc-arm-none-eabi-10-2020-q4-major\arm-none-eabi\include\c++\10.2.1\bits\basic_string.h **** 	    // Just move the allocated pointer, our allocator can free it.
 730:c:\gcc-arm-none-eabi-10-2020-q4-major-win32\gcc-arm-none-eabi-10-2020-q4-major\arm-none-eabi\include\c++\10.2.1\bits\basic_string.h **** 	    pointer __data = nullptr;
 731:c:\gcc-arm-none-eabi-10-2020-q4-major-win32\gcc-arm-none-eabi-10-2020-q4-major\arm-none-eabi\include\c++\10.2.1\bits\basic_string.h **** 	    size_type __capacity;
 732:c:\gcc-arm-none-eabi-10-2020-q4-major-win32\gcc-arm-none-eabi-10-2020-q4-major\arm-none-eabi\include\c++\10.2.1\bits\basic_string.h **** 	    if (!_M_is_local())
 733:c:\gcc-arm-none-eabi-10-2020-q4-major-win32\gcc-arm-none-eabi-10-2020-q4-major\arm-none-eabi\include\c++\10.2.1\bits\basic_string.h **** 	      {
 734:c:\gcc-arm-none-eabi-10-2020-q4-major-win32\gcc-arm-none-eabi-10-2020-q4-major\arm-none-eabi\include\c++\10.2.1\bits\basic_string.h **** 		if (_Alloc_traits::_S_always_equal())
 735:c:\gcc-arm-none-eabi-10-2020-q4-major-win32\gcc-arm-none-eabi-10-2020-q4-major\arm-none-eabi\include\c++\10.2.1\bits\basic_string.h **** 		  {
 736:c:\gcc-arm-none-eabi-10-2020-q4-major-win32\gcc-arm-none-eabi-10-2020-q4-major\arm-none-eabi\include\c++\10.2.1\bits\basic_string.h **** 		    // __str can reuse our existing storage.
 737:c:\gcc-arm-none-eabi-10-2020-q4-major-win32\gcc-arm-none-eabi-10-2020-q4-major\arm-none-eabi\include\c++\10.2.1\bits\basic_string.h **** 		    __data = _M_data();
 738:c:\gcc-arm-none-eabi-10-2020-q4-major-win32\gcc-arm-none-eabi-10-2020-q4-major\arm-none-eabi\include\c++\10.2.1\bits\basic_string.h **** 		    __capacity = _M_allocated_capacity;
 739:c:\gcc-arm-none-eabi-10-2020-q4-major-win32\gcc-arm-none-eabi-10-2020-q4-major\arm-none-eabi\include\c++\10.2.1\bits\basic_string.h **** 		  }
 740:c:\gcc-arm-none-eabi-10-2020-q4-major-win32\gcc-arm-none-eabi-10-2020-q4-major\arm-none-eabi\include\c++\10.2.1\bits\basic_string.h **** 		else // __str can't use it, so free it.
 741:c:\gcc-arm-none-eabi-10-2020-q4-major-win32\gcc-arm-none-eabi-10-2020-q4-major\arm-none-eabi\include\c++\10.2.1\bits\basic_string.h **** 		  _M_destroy(_M_allocated_capacity);
 742:c:\gcc-arm-none-eabi-10-2020-q4-major-win32\gcc-arm-none-eabi-10-2020-q4-major\arm-none-eabi\include\c++\10.2.1\bits\basic_string.h **** 	      }
 743:c:\gcc-arm-none-eabi-10-2020-q4-major-win32\gcc-arm-none-eabi-10-2020-q4-major\arm-none-eabi\include\c++\10.2.1\bits\basic_string.h **** 
 744:c:\gcc-arm-none-eabi-10-2020-q4-major-win32\gcc-arm-none-eabi-10-2020-q4-major\arm-none-eabi\include\c++\10.2.1\bits\basic_string.h **** 	    _M_data(__str._M_data());
 745:c:\gcc-arm-none-eabi-10-2020-q4-major-win32\gcc-arm-none-eabi-10-2020-q4-major\arm-none-eabi\include\c++\10.2.1\bits\basic_string.h **** 	    _M_length(__str.length());
 746:c:\gcc-arm-none-eabi-10-2020-q4-major-win32\gcc-arm-none-eabi-10-2020-q4-major\arm-none-eabi\include\c++\10.2.1\bits\basic_string.h **** 	    _M_capacity(__str._M_allocated_capacity);
 747:c:\gcc-arm-none-eabi-10-2020-q4-major-win32\gcc-arm-none-eabi-10-2020-q4-major\arm-none-eabi\include\c++\10.2.1\bits\basic_string.h **** 	    if (__data)
 748:c:\gcc-arm-none-eabi-10-2020-q4-major-win32\gcc-arm-none-eabi-10-2020-q4-major\arm-none-eabi\include\c++\10.2.1\bits\basic_string.h **** 	      {
 749:c:\gcc-arm-none-eabi-10-2020-q4-major-win32\gcc-arm-none-eabi-10-2020-q4-major\arm-none-eabi\include\c++\10.2.1\bits\basic_string.h **** 		__str._M_data(__data);
 750:c:\gcc-arm-none-eabi-10-2020-q4-major-win32\gcc-arm-none-eabi-10-2020-q4-major\arm-none-eabi\include\c++\10.2.1\bits\basic_string.h **** 		__str._M_capacity(__capacity);
 751:c:\gcc-arm-none-eabi-10-2020-q4-major-win32\gcc-arm-none-eabi-10-2020-q4-major\arm-none-eabi\include\c++\10.2.1\bits\basic_string.h **** 	      }
 752:c:\gcc-arm-none-eabi-10-2020-q4-major-win32\gcc-arm-none-eabi-10-2020-q4-major\arm-none-eabi\include\c++\10.2.1\bits\basic_string.h **** 	    else
 753:c:\gcc-arm-none-eabi-10-2020-q4-major-win32\gcc-arm-none-eabi-10-2020-q4-major\arm-none-eabi\include\c++\10.2.1\bits\basic_string.h **** 	      __str._M_data(__str._M_local_buf);
 754:c:\gcc-arm-none-eabi-10-2020-q4-major-win32\gcc-arm-none-eabi-10-2020-q4-major\arm-none-eabi\include\c++\10.2.1\bits\basic_string.h **** 	  }
 755:c:\gcc-arm-none-eabi-10-2020-q4-major-win32\gcc-arm-none-eabi-10-2020-q4-major\arm-none-eabi\include\c++\10.2.1\bits\basic_string.h **** 	else // Need to do a deep copy
 756:c:\gcc-arm-none-eabi-10-2020-q4-major-win32\gcc-arm-none-eabi-10-2020-q4-major\arm-none-eabi\include\c++\10.2.1\bits\basic_string.h **** 	  assign(__str);
 757:c:\gcc-arm-none-eabi-10-2020-q4-major-win32\gcc-arm-none-eabi-10-2020-q4-major\arm-none-eabi\include\c++\10.2.1\bits\basic_string.h **** 	__str.clear();
ARM GAS  C:\Users\hoang\AppData\Local\Temp\ccNMsdI7.s 			page 20


 758:c:\gcc-arm-none-eabi-10-2020-q4-major-win32\gcc-arm-none-eabi-10-2020-q4-major\arm-none-eabi\include\c++\10.2.1\bits\basic_string.h **** 	return *this;
 759:c:\gcc-arm-none-eabi-10-2020-q4-major-win32\gcc-arm-none-eabi-10-2020-q4-major\arm-none-eabi\include\c++\10.2.1\bits\basic_string.h ****       }
 760:c:\gcc-arm-none-eabi-10-2020-q4-major-win32\gcc-arm-none-eabi-10-2020-q4-major\arm-none-eabi\include\c++\10.2.1\bits\basic_string.h **** 
 761:c:\gcc-arm-none-eabi-10-2020-q4-major-win32\gcc-arm-none-eabi-10-2020-q4-major\arm-none-eabi\include\c++\10.2.1\bits\basic_string.h ****       /**
 762:c:\gcc-arm-none-eabi-10-2020-q4-major-win32\gcc-arm-none-eabi-10-2020-q4-major\arm-none-eabi\include\c++\10.2.1\bits\basic_string.h ****        *  @brief  Set value to string constructed from initializer %list.
 763:c:\gcc-arm-none-eabi-10-2020-q4-major-win32\gcc-arm-none-eabi-10-2020-q4-major\arm-none-eabi\include\c++\10.2.1\bits\basic_string.h ****        *  @param  __l  std::initializer_list.
 764:c:\gcc-arm-none-eabi-10-2020-q4-major-win32\gcc-arm-none-eabi-10-2020-q4-major\arm-none-eabi\include\c++\10.2.1\bits\basic_string.h ****        */
 765:c:\gcc-arm-none-eabi-10-2020-q4-major-win32\gcc-arm-none-eabi-10-2020-q4-major\arm-none-eabi\include\c++\10.2.1\bits\basic_string.h ****       basic_string&
 766:c:\gcc-arm-none-eabi-10-2020-q4-major-win32\gcc-arm-none-eabi-10-2020-q4-major\arm-none-eabi\include\c++\10.2.1\bits\basic_string.h ****       operator=(initializer_list<_CharT> __l)
 767:c:\gcc-arm-none-eabi-10-2020-q4-major-win32\gcc-arm-none-eabi-10-2020-q4-major\arm-none-eabi\include\c++\10.2.1\bits\basic_string.h ****       {
 768:c:\gcc-arm-none-eabi-10-2020-q4-major-win32\gcc-arm-none-eabi-10-2020-q4-major\arm-none-eabi\include\c++\10.2.1\bits\basic_string.h **** 	this->assign(__l.begin(), __l.size());
 769:c:\gcc-arm-none-eabi-10-2020-q4-major-win32\gcc-arm-none-eabi-10-2020-q4-major\arm-none-eabi\include\c++\10.2.1\bits\basic_string.h **** 	return *this;
 770:c:\gcc-arm-none-eabi-10-2020-q4-major-win32\gcc-arm-none-eabi-10-2020-q4-major\arm-none-eabi\include\c++\10.2.1\bits\basic_string.h ****       }
 771:c:\gcc-arm-none-eabi-10-2020-q4-major-win32\gcc-arm-none-eabi-10-2020-q4-major\arm-none-eabi\include\c++\10.2.1\bits\basic_string.h **** #endif // C++11
 772:c:\gcc-arm-none-eabi-10-2020-q4-major-win32\gcc-arm-none-eabi-10-2020-q4-major\arm-none-eabi\include\c++\10.2.1\bits\basic_string.h **** 
 773:c:\gcc-arm-none-eabi-10-2020-q4-major-win32\gcc-arm-none-eabi-10-2020-q4-major\arm-none-eabi\include\c++\10.2.1\bits\basic_string.h **** #if __cplusplus >= 201703L
 774:c:\gcc-arm-none-eabi-10-2020-q4-major-win32\gcc-arm-none-eabi-10-2020-q4-major\arm-none-eabi\include\c++\10.2.1\bits\basic_string.h ****       /**
 775:c:\gcc-arm-none-eabi-10-2020-q4-major-win32\gcc-arm-none-eabi-10-2020-q4-major\arm-none-eabi\include\c++\10.2.1\bits\basic_string.h ****        *  @brief  Set value to string constructed from a string_view.
 776:c:\gcc-arm-none-eabi-10-2020-q4-major-win32\gcc-arm-none-eabi-10-2020-q4-major\arm-none-eabi\include\c++\10.2.1\bits\basic_string.h ****        *  @param  __svt  An object convertible to string_view.
 777:c:\gcc-arm-none-eabi-10-2020-q4-major-win32\gcc-arm-none-eabi-10-2020-q4-major\arm-none-eabi\include\c++\10.2.1\bits\basic_string.h ****        */
 778:c:\gcc-arm-none-eabi-10-2020-q4-major-win32\gcc-arm-none-eabi-10-2020-q4-major\arm-none-eabi\include\c++\10.2.1\bits\basic_string.h ****      template<typename _Tp>
 779:c:\gcc-arm-none-eabi-10-2020-q4-major-win32\gcc-arm-none-eabi-10-2020-q4-major\arm-none-eabi\include\c++\10.2.1\bits\basic_string.h ****        _If_sv<_Tp, basic_string&>
 780:c:\gcc-arm-none-eabi-10-2020-q4-major-win32\gcc-arm-none-eabi-10-2020-q4-major\arm-none-eabi\include\c++\10.2.1\bits\basic_string.h ****        operator=(const _Tp& __svt)
 781:c:\gcc-arm-none-eabi-10-2020-q4-major-win32\gcc-arm-none-eabi-10-2020-q4-major\arm-none-eabi\include\c++\10.2.1\bits\basic_string.h ****        { return this->assign(__svt); }
 782:c:\gcc-arm-none-eabi-10-2020-q4-major-win32\gcc-arm-none-eabi-10-2020-q4-major\arm-none-eabi\include\c++\10.2.1\bits\basic_string.h **** 
 783:c:\gcc-arm-none-eabi-10-2020-q4-major-win32\gcc-arm-none-eabi-10-2020-q4-major\arm-none-eabi\include\c++\10.2.1\bits\basic_string.h ****       /**
 784:c:\gcc-arm-none-eabi-10-2020-q4-major-win32\gcc-arm-none-eabi-10-2020-q4-major\arm-none-eabi\include\c++\10.2.1\bits\basic_string.h ****        *  @brief  Convert to a string_view.
 785:c:\gcc-arm-none-eabi-10-2020-q4-major-win32\gcc-arm-none-eabi-10-2020-q4-major\arm-none-eabi\include\c++\10.2.1\bits\basic_string.h ****        *  @return A string_view.
 786:c:\gcc-arm-none-eabi-10-2020-q4-major-win32\gcc-arm-none-eabi-10-2020-q4-major\arm-none-eabi\include\c++\10.2.1\bits\basic_string.h ****        */
 787:c:\gcc-arm-none-eabi-10-2020-q4-major-win32\gcc-arm-none-eabi-10-2020-q4-major\arm-none-eabi\include\c++\10.2.1\bits\basic_string.h ****       operator __sv_type() const noexcept
 788:c:\gcc-arm-none-eabi-10-2020-q4-major-win32\gcc-arm-none-eabi-10-2020-q4-major\arm-none-eabi\include\c++\10.2.1\bits\basic_string.h ****       { return __sv_type(data(), size()); }
 789:c:\gcc-arm-none-eabi-10-2020-q4-major-win32\gcc-arm-none-eabi-10-2020-q4-major\arm-none-eabi\include\c++\10.2.1\bits\basic_string.h **** #endif // C++17
 790:c:\gcc-arm-none-eabi-10-2020-q4-major-win32\gcc-arm-none-eabi-10-2020-q4-major\arm-none-eabi\include\c++\10.2.1\bits\basic_string.h **** 
 791:c:\gcc-arm-none-eabi-10-2020-q4-major-win32\gcc-arm-none-eabi-10-2020-q4-major\arm-none-eabi\include\c++\10.2.1\bits\basic_string.h ****       // Iterators:
 792:c:\gcc-arm-none-eabi-10-2020-q4-major-win32\gcc-arm-none-eabi-10-2020-q4-major\arm-none-eabi\include\c++\10.2.1\bits\basic_string.h ****       /**
 793:c:\gcc-arm-none-eabi-10-2020-q4-major-win32\gcc-arm-none-eabi-10-2020-q4-major\arm-none-eabi\include\c++\10.2.1\bits\basic_string.h ****        *  Returns a read/write iterator that points to the first character in
 794:c:\gcc-arm-none-eabi-10-2020-q4-major-win32\gcc-arm-none-eabi-10-2020-q4-major\arm-none-eabi\include\c++\10.2.1\bits\basic_string.h ****        *  the %string.
 795:c:\gcc-arm-none-eabi-10-2020-q4-major-win32\gcc-arm-none-eabi-10-2020-q4-major\arm-none-eabi\include\c++\10.2.1\bits\basic_string.h ****        */
 796:c:\gcc-arm-none-eabi-10-2020-q4-major-win32\gcc-arm-none-eabi-10-2020-q4-major\arm-none-eabi\include\c++\10.2.1\bits\basic_string.h ****       iterator
 797:c:\gcc-arm-none-eabi-10-2020-q4-major-win32\gcc-arm-none-eabi-10-2020-q4-major\arm-none-eabi\include\c++\10.2.1\bits\basic_string.h ****       begin() _GLIBCXX_NOEXCEPT
 798:c:\gcc-arm-none-eabi-10-2020-q4-major-win32\gcc-arm-none-eabi-10-2020-q4-major\arm-none-eabi\include\c++\10.2.1\bits\basic_string.h ****       { return iterator(_M_data()); }
 799:c:\gcc-arm-none-eabi-10-2020-q4-major-win32\gcc-arm-none-eabi-10-2020-q4-major\arm-none-eabi\include\c++\10.2.1\bits\basic_string.h **** 
 800:c:\gcc-arm-none-eabi-10-2020-q4-major-win32\gcc-arm-none-eabi-10-2020-q4-major\arm-none-eabi\include\c++\10.2.1\bits\basic_string.h ****       /**
 801:c:\gcc-arm-none-eabi-10-2020-q4-major-win32\gcc-arm-none-eabi-10-2020-q4-major\arm-none-eabi\include\c++\10.2.1\bits\basic_string.h ****        *  Returns a read-only (constant) iterator that points to the first
 802:c:\gcc-arm-none-eabi-10-2020-q4-major-win32\gcc-arm-none-eabi-10-2020-q4-major\arm-none-eabi\include\c++\10.2.1\bits\basic_string.h ****        *  character in the %string.
 803:c:\gcc-arm-none-eabi-10-2020-q4-major-win32\gcc-arm-none-eabi-10-2020-q4-major\arm-none-eabi\include\c++\10.2.1\bits\basic_string.h ****        */
 804:c:\gcc-arm-none-eabi-10-2020-q4-major-win32\gcc-arm-none-eabi-10-2020-q4-major\arm-none-eabi\include\c++\10.2.1\bits\basic_string.h ****       const_iterator
 805:c:\gcc-arm-none-eabi-10-2020-q4-major-win32\gcc-arm-none-eabi-10-2020-q4-major\arm-none-eabi\include\c++\10.2.1\bits\basic_string.h ****       begin() const _GLIBCXX_NOEXCEPT
 806:c:\gcc-arm-none-eabi-10-2020-q4-major-win32\gcc-arm-none-eabi-10-2020-q4-major\arm-none-eabi\include\c++\10.2.1\bits\basic_string.h ****       { return const_iterator(_M_data()); }
 807:c:\gcc-arm-none-eabi-10-2020-q4-major-win32\gcc-arm-none-eabi-10-2020-q4-major\arm-none-eabi\include\c++\10.2.1\bits\basic_string.h **** 
 808:c:\gcc-arm-none-eabi-10-2020-q4-major-win32\gcc-arm-none-eabi-10-2020-q4-major\arm-none-eabi\include\c++\10.2.1\bits\basic_string.h ****       /**
 809:c:\gcc-arm-none-eabi-10-2020-q4-major-win32\gcc-arm-none-eabi-10-2020-q4-major\arm-none-eabi\include\c++\10.2.1\bits\basic_string.h ****        *  Returns a read/write iterator that points one past the last
 810:c:\gcc-arm-none-eabi-10-2020-q4-major-win32\gcc-arm-none-eabi-10-2020-q4-major\arm-none-eabi\include\c++\10.2.1\bits\basic_string.h ****        *  character in the %string.
 811:c:\gcc-arm-none-eabi-10-2020-q4-major-win32\gcc-arm-none-eabi-10-2020-q4-major\arm-none-eabi\include\c++\10.2.1\bits\basic_string.h ****        */
 812:c:\gcc-arm-none-eabi-10-2020-q4-major-win32\gcc-arm-none-eabi-10-2020-q4-major\arm-none-eabi\include\c++\10.2.1\bits\basic_string.h ****       iterator
 813:c:\gcc-arm-none-eabi-10-2020-q4-major-win32\gcc-arm-none-eabi-10-2020-q4-major\arm-none-eabi\include\c++\10.2.1\bits\basic_string.h ****       end() _GLIBCXX_NOEXCEPT
 814:c:\gcc-arm-none-eabi-10-2020-q4-major-win32\gcc-arm-none-eabi-10-2020-q4-major\arm-none-eabi\include\c++\10.2.1\bits\basic_string.h ****       { return iterator(_M_data() + this->size()); }
ARM GAS  C:\Users\hoang\AppData\Local\Temp\ccNMsdI7.s 			page 21


 815:c:\gcc-arm-none-eabi-10-2020-q4-major-win32\gcc-arm-none-eabi-10-2020-q4-major\arm-none-eabi\include\c++\10.2.1\bits\basic_string.h **** 
 816:c:\gcc-arm-none-eabi-10-2020-q4-major-win32\gcc-arm-none-eabi-10-2020-q4-major\arm-none-eabi\include\c++\10.2.1\bits\basic_string.h ****       /**
 817:c:\gcc-arm-none-eabi-10-2020-q4-major-win32\gcc-arm-none-eabi-10-2020-q4-major\arm-none-eabi\include\c++\10.2.1\bits\basic_string.h ****        *  Returns a read-only (constant) iterator that points one past the
 818:c:\gcc-arm-none-eabi-10-2020-q4-major-win32\gcc-arm-none-eabi-10-2020-q4-major\arm-none-eabi\include\c++\10.2.1\bits\basic_string.h ****        *  last character in the %string.
 819:c:\gcc-arm-none-eabi-10-2020-q4-major-win32\gcc-arm-none-eabi-10-2020-q4-major\arm-none-eabi\include\c++\10.2.1\bits\basic_string.h ****        */
 820:c:\gcc-arm-none-eabi-10-2020-q4-major-win32\gcc-arm-none-eabi-10-2020-q4-major\arm-none-eabi\include\c++\10.2.1\bits\basic_string.h ****       const_iterator
 821:c:\gcc-arm-none-eabi-10-2020-q4-major-win32\gcc-arm-none-eabi-10-2020-q4-major\arm-none-eabi\include\c++\10.2.1\bits\basic_string.h ****       end() const _GLIBCXX_NOEXCEPT
 822:c:\gcc-arm-none-eabi-10-2020-q4-major-win32\gcc-arm-none-eabi-10-2020-q4-major\arm-none-eabi\include\c++\10.2.1\bits\basic_string.h ****       { return const_iterator(_M_data() + this->size()); }
 823:c:\gcc-arm-none-eabi-10-2020-q4-major-win32\gcc-arm-none-eabi-10-2020-q4-major\arm-none-eabi\include\c++\10.2.1\bits\basic_string.h **** 
 824:c:\gcc-arm-none-eabi-10-2020-q4-major-win32\gcc-arm-none-eabi-10-2020-q4-major\arm-none-eabi\include\c++\10.2.1\bits\basic_string.h ****       /**
 825:c:\gcc-arm-none-eabi-10-2020-q4-major-win32\gcc-arm-none-eabi-10-2020-q4-major\arm-none-eabi\include\c++\10.2.1\bits\basic_string.h ****        *  Returns a read/write reverse iterator that points to the last
 826:c:\gcc-arm-none-eabi-10-2020-q4-major-win32\gcc-arm-none-eabi-10-2020-q4-major\arm-none-eabi\include\c++\10.2.1\bits\basic_string.h ****        *  character in the %string.  Iteration is done in reverse element
 827:c:\gcc-arm-none-eabi-10-2020-q4-major-win32\gcc-arm-none-eabi-10-2020-q4-major\arm-none-eabi\include\c++\10.2.1\bits\basic_string.h ****        *  order.
 828:c:\gcc-arm-none-eabi-10-2020-q4-major-win32\gcc-arm-none-eabi-10-2020-q4-major\arm-none-eabi\include\c++\10.2.1\bits\basic_string.h ****        */
 829:c:\gcc-arm-none-eabi-10-2020-q4-major-win32\gcc-arm-none-eabi-10-2020-q4-major\arm-none-eabi\include\c++\10.2.1\bits\basic_string.h ****       reverse_iterator
 830:c:\gcc-arm-none-eabi-10-2020-q4-major-win32\gcc-arm-none-eabi-10-2020-q4-major\arm-none-eabi\include\c++\10.2.1\bits\basic_string.h ****       rbegin() _GLIBCXX_NOEXCEPT
 831:c:\gcc-arm-none-eabi-10-2020-q4-major-win32\gcc-arm-none-eabi-10-2020-q4-major\arm-none-eabi\include\c++\10.2.1\bits\basic_string.h ****       { return reverse_iterator(this->end()); }
 832:c:\gcc-arm-none-eabi-10-2020-q4-major-win32\gcc-arm-none-eabi-10-2020-q4-major\arm-none-eabi\include\c++\10.2.1\bits\basic_string.h **** 
 833:c:\gcc-arm-none-eabi-10-2020-q4-major-win32\gcc-arm-none-eabi-10-2020-q4-major\arm-none-eabi\include\c++\10.2.1\bits\basic_string.h ****       /**
 834:c:\gcc-arm-none-eabi-10-2020-q4-major-win32\gcc-arm-none-eabi-10-2020-q4-major\arm-none-eabi\include\c++\10.2.1\bits\basic_string.h ****        *  Returns a read-only (constant) reverse iterator that points
 835:c:\gcc-arm-none-eabi-10-2020-q4-major-win32\gcc-arm-none-eabi-10-2020-q4-major\arm-none-eabi\include\c++\10.2.1\bits\basic_string.h ****        *  to the last character in the %string.  Iteration is done in
 836:c:\gcc-arm-none-eabi-10-2020-q4-major-win32\gcc-arm-none-eabi-10-2020-q4-major\arm-none-eabi\include\c++\10.2.1\bits\basic_string.h ****        *  reverse element order.
 837:c:\gcc-arm-none-eabi-10-2020-q4-major-win32\gcc-arm-none-eabi-10-2020-q4-major\arm-none-eabi\include\c++\10.2.1\bits\basic_string.h ****        */
 838:c:\gcc-arm-none-eabi-10-2020-q4-major-win32\gcc-arm-none-eabi-10-2020-q4-major\arm-none-eabi\include\c++\10.2.1\bits\basic_string.h ****       const_reverse_iterator
 839:c:\gcc-arm-none-eabi-10-2020-q4-major-win32\gcc-arm-none-eabi-10-2020-q4-major\arm-none-eabi\include\c++\10.2.1\bits\basic_string.h ****       rbegin() const _GLIBCXX_NOEXCEPT
 840:c:\gcc-arm-none-eabi-10-2020-q4-major-win32\gcc-arm-none-eabi-10-2020-q4-major\arm-none-eabi\include\c++\10.2.1\bits\basic_string.h ****       { return const_reverse_iterator(this->end()); }
 841:c:\gcc-arm-none-eabi-10-2020-q4-major-win32\gcc-arm-none-eabi-10-2020-q4-major\arm-none-eabi\include\c++\10.2.1\bits\basic_string.h **** 
 842:c:\gcc-arm-none-eabi-10-2020-q4-major-win32\gcc-arm-none-eabi-10-2020-q4-major\arm-none-eabi\include\c++\10.2.1\bits\basic_string.h ****       /**
 843:c:\gcc-arm-none-eabi-10-2020-q4-major-win32\gcc-arm-none-eabi-10-2020-q4-major\arm-none-eabi\include\c++\10.2.1\bits\basic_string.h ****        *  Returns a read/write reverse iterator that points to one before the
 844:c:\gcc-arm-none-eabi-10-2020-q4-major-win32\gcc-arm-none-eabi-10-2020-q4-major\arm-none-eabi\include\c++\10.2.1\bits\basic_string.h ****        *  first character in the %string.  Iteration is done in reverse
 845:c:\gcc-arm-none-eabi-10-2020-q4-major-win32\gcc-arm-none-eabi-10-2020-q4-major\arm-none-eabi\include\c++\10.2.1\bits\basic_string.h ****        *  element order.
 846:c:\gcc-arm-none-eabi-10-2020-q4-major-win32\gcc-arm-none-eabi-10-2020-q4-major\arm-none-eabi\include\c++\10.2.1\bits\basic_string.h ****        */
 847:c:\gcc-arm-none-eabi-10-2020-q4-major-win32\gcc-arm-none-eabi-10-2020-q4-major\arm-none-eabi\include\c++\10.2.1\bits\basic_string.h ****       reverse_iterator
 848:c:\gcc-arm-none-eabi-10-2020-q4-major-win32\gcc-arm-none-eabi-10-2020-q4-major\arm-none-eabi\include\c++\10.2.1\bits\basic_string.h ****       rend() _GLIBCXX_NOEXCEPT
 849:c:\gcc-arm-none-eabi-10-2020-q4-major-win32\gcc-arm-none-eabi-10-2020-q4-major\arm-none-eabi\include\c++\10.2.1\bits\basic_string.h ****       { return reverse_iterator(this->begin()); }
 850:c:\gcc-arm-none-eabi-10-2020-q4-major-win32\gcc-arm-none-eabi-10-2020-q4-major\arm-none-eabi\include\c++\10.2.1\bits\basic_string.h **** 
 851:c:\gcc-arm-none-eabi-10-2020-q4-major-win32\gcc-arm-none-eabi-10-2020-q4-major\arm-none-eabi\include\c++\10.2.1\bits\basic_string.h ****       /**
 852:c:\gcc-arm-none-eabi-10-2020-q4-major-win32\gcc-arm-none-eabi-10-2020-q4-major\arm-none-eabi\include\c++\10.2.1\bits\basic_string.h ****        *  Returns a read-only (constant) reverse iterator that points
 853:c:\gcc-arm-none-eabi-10-2020-q4-major-win32\gcc-arm-none-eabi-10-2020-q4-major\arm-none-eabi\include\c++\10.2.1\bits\basic_string.h ****        *  to one before the first character in the %string.  Iteration
 854:c:\gcc-arm-none-eabi-10-2020-q4-major-win32\gcc-arm-none-eabi-10-2020-q4-major\arm-none-eabi\include\c++\10.2.1\bits\basic_string.h ****        *  is done in reverse element order.
 855:c:\gcc-arm-none-eabi-10-2020-q4-major-win32\gcc-arm-none-eabi-10-2020-q4-major\arm-none-eabi\include\c++\10.2.1\bits\basic_string.h ****        */
 856:c:\gcc-arm-none-eabi-10-2020-q4-major-win32\gcc-arm-none-eabi-10-2020-q4-major\arm-none-eabi\include\c++\10.2.1\bits\basic_string.h ****       const_reverse_iterator
 857:c:\gcc-arm-none-eabi-10-2020-q4-major-win32\gcc-arm-none-eabi-10-2020-q4-major\arm-none-eabi\include\c++\10.2.1\bits\basic_string.h ****       rend() const _GLIBCXX_NOEXCEPT
 858:c:\gcc-arm-none-eabi-10-2020-q4-major-win32\gcc-arm-none-eabi-10-2020-q4-major\arm-none-eabi\include\c++\10.2.1\bits\basic_string.h ****       { return const_reverse_iterator(this->begin()); }
 859:c:\gcc-arm-none-eabi-10-2020-q4-major-win32\gcc-arm-none-eabi-10-2020-q4-major\arm-none-eabi\include\c++\10.2.1\bits\basic_string.h **** 
 860:c:\gcc-arm-none-eabi-10-2020-q4-major-win32\gcc-arm-none-eabi-10-2020-q4-major\arm-none-eabi\include\c++\10.2.1\bits\basic_string.h **** #if __cplusplus >= 201103L
 861:c:\gcc-arm-none-eabi-10-2020-q4-major-win32\gcc-arm-none-eabi-10-2020-q4-major\arm-none-eabi\include\c++\10.2.1\bits\basic_string.h ****       /**
 862:c:\gcc-arm-none-eabi-10-2020-q4-major-win32\gcc-arm-none-eabi-10-2020-q4-major\arm-none-eabi\include\c++\10.2.1\bits\basic_string.h ****        *  Returns a read-only (constant) iterator that points to the first
 863:c:\gcc-arm-none-eabi-10-2020-q4-major-win32\gcc-arm-none-eabi-10-2020-q4-major\arm-none-eabi\include\c++\10.2.1\bits\basic_string.h ****        *  character in the %string.
 864:c:\gcc-arm-none-eabi-10-2020-q4-major-win32\gcc-arm-none-eabi-10-2020-q4-major\arm-none-eabi\include\c++\10.2.1\bits\basic_string.h ****        */
 865:c:\gcc-arm-none-eabi-10-2020-q4-major-win32\gcc-arm-none-eabi-10-2020-q4-major\arm-none-eabi\include\c++\10.2.1\bits\basic_string.h ****       const_iterator
 866:c:\gcc-arm-none-eabi-10-2020-q4-major-win32\gcc-arm-none-eabi-10-2020-q4-major\arm-none-eabi\include\c++\10.2.1\bits\basic_string.h ****       cbegin() const noexcept
 867:c:\gcc-arm-none-eabi-10-2020-q4-major-win32\gcc-arm-none-eabi-10-2020-q4-major\arm-none-eabi\include\c++\10.2.1\bits\basic_string.h ****       { return const_iterator(this->_M_data()); }
 868:c:\gcc-arm-none-eabi-10-2020-q4-major-win32\gcc-arm-none-eabi-10-2020-q4-major\arm-none-eabi\include\c++\10.2.1\bits\basic_string.h **** 
 869:c:\gcc-arm-none-eabi-10-2020-q4-major-win32\gcc-arm-none-eabi-10-2020-q4-major\arm-none-eabi\include\c++\10.2.1\bits\basic_string.h ****       /**
 870:c:\gcc-arm-none-eabi-10-2020-q4-major-win32\gcc-arm-none-eabi-10-2020-q4-major\arm-none-eabi\include\c++\10.2.1\bits\basic_string.h ****        *  Returns a read-only (constant) iterator that points one past the
 871:c:\gcc-arm-none-eabi-10-2020-q4-major-win32\gcc-arm-none-eabi-10-2020-q4-major\arm-none-eabi\include\c++\10.2.1\bits\basic_string.h ****        *  last character in the %string.
ARM GAS  C:\Users\hoang\AppData\Local\Temp\ccNMsdI7.s 			page 22


 872:c:\gcc-arm-none-eabi-10-2020-q4-major-win32\gcc-arm-none-eabi-10-2020-q4-major\arm-none-eabi\include\c++\10.2.1\bits\basic_string.h ****        */
 873:c:\gcc-arm-none-eabi-10-2020-q4-major-win32\gcc-arm-none-eabi-10-2020-q4-major\arm-none-eabi\include\c++\10.2.1\bits\basic_string.h ****       const_iterator
 874:c:\gcc-arm-none-eabi-10-2020-q4-major-win32\gcc-arm-none-eabi-10-2020-q4-major\arm-none-eabi\include\c++\10.2.1\bits\basic_string.h ****       cend() const noexcept
 875:c:\gcc-arm-none-eabi-10-2020-q4-major-win32\gcc-arm-none-eabi-10-2020-q4-major\arm-none-eabi\include\c++\10.2.1\bits\basic_string.h ****       { return const_iterator(this->_M_data() + this->size()); }
 876:c:\gcc-arm-none-eabi-10-2020-q4-major-win32\gcc-arm-none-eabi-10-2020-q4-major\arm-none-eabi\include\c++\10.2.1\bits\basic_string.h **** 
 877:c:\gcc-arm-none-eabi-10-2020-q4-major-win32\gcc-arm-none-eabi-10-2020-q4-major\arm-none-eabi\include\c++\10.2.1\bits\basic_string.h ****       /**
 878:c:\gcc-arm-none-eabi-10-2020-q4-major-win32\gcc-arm-none-eabi-10-2020-q4-major\arm-none-eabi\include\c++\10.2.1\bits\basic_string.h ****        *  Returns a read-only (constant) reverse iterator that points
 879:c:\gcc-arm-none-eabi-10-2020-q4-major-win32\gcc-arm-none-eabi-10-2020-q4-major\arm-none-eabi\include\c++\10.2.1\bits\basic_string.h ****        *  to the last character in the %string.  Iteration is done in
 880:c:\gcc-arm-none-eabi-10-2020-q4-major-win32\gcc-arm-none-eabi-10-2020-q4-major\arm-none-eabi\include\c++\10.2.1\bits\basic_string.h ****        *  reverse element order.
 881:c:\gcc-arm-none-eabi-10-2020-q4-major-win32\gcc-arm-none-eabi-10-2020-q4-major\arm-none-eabi\include\c++\10.2.1\bits\basic_string.h ****        */
 882:c:\gcc-arm-none-eabi-10-2020-q4-major-win32\gcc-arm-none-eabi-10-2020-q4-major\arm-none-eabi\include\c++\10.2.1\bits\basic_string.h ****       const_reverse_iterator
 883:c:\gcc-arm-none-eabi-10-2020-q4-major-win32\gcc-arm-none-eabi-10-2020-q4-major\arm-none-eabi\include\c++\10.2.1\bits\basic_string.h ****       crbegin() const noexcept
 884:c:\gcc-arm-none-eabi-10-2020-q4-major-win32\gcc-arm-none-eabi-10-2020-q4-major\arm-none-eabi\include\c++\10.2.1\bits\basic_string.h ****       { return const_reverse_iterator(this->end()); }
 885:c:\gcc-arm-none-eabi-10-2020-q4-major-win32\gcc-arm-none-eabi-10-2020-q4-major\arm-none-eabi\include\c++\10.2.1\bits\basic_string.h **** 
 886:c:\gcc-arm-none-eabi-10-2020-q4-major-win32\gcc-arm-none-eabi-10-2020-q4-major\arm-none-eabi\include\c++\10.2.1\bits\basic_string.h ****       /**
 887:c:\gcc-arm-none-eabi-10-2020-q4-major-win32\gcc-arm-none-eabi-10-2020-q4-major\arm-none-eabi\include\c++\10.2.1\bits\basic_string.h ****        *  Returns a read-only (constant) reverse iterator that points
 888:c:\gcc-arm-none-eabi-10-2020-q4-major-win32\gcc-arm-none-eabi-10-2020-q4-major\arm-none-eabi\include\c++\10.2.1\bits\basic_string.h ****        *  to one before the first character in the %string.  Iteration
 889:c:\gcc-arm-none-eabi-10-2020-q4-major-win32\gcc-arm-none-eabi-10-2020-q4-major\arm-none-eabi\include\c++\10.2.1\bits\basic_string.h ****        *  is done in reverse element order.
 890:c:\gcc-arm-none-eabi-10-2020-q4-major-win32\gcc-arm-none-eabi-10-2020-q4-major\arm-none-eabi\include\c++\10.2.1\bits\basic_string.h ****        */
 891:c:\gcc-arm-none-eabi-10-2020-q4-major-win32\gcc-arm-none-eabi-10-2020-q4-major\arm-none-eabi\include\c++\10.2.1\bits\basic_string.h ****       const_reverse_iterator
 892:c:\gcc-arm-none-eabi-10-2020-q4-major-win32\gcc-arm-none-eabi-10-2020-q4-major\arm-none-eabi\include\c++\10.2.1\bits\basic_string.h ****       crend() const noexcept
 893:c:\gcc-arm-none-eabi-10-2020-q4-major-win32\gcc-arm-none-eabi-10-2020-q4-major\arm-none-eabi\include\c++\10.2.1\bits\basic_string.h ****       { return const_reverse_iterator(this->begin()); }
 894:c:\gcc-arm-none-eabi-10-2020-q4-major-win32\gcc-arm-none-eabi-10-2020-q4-major\arm-none-eabi\include\c++\10.2.1\bits\basic_string.h **** #endif
 895:c:\gcc-arm-none-eabi-10-2020-q4-major-win32\gcc-arm-none-eabi-10-2020-q4-major\arm-none-eabi\include\c++\10.2.1\bits\basic_string.h **** 
 896:c:\gcc-arm-none-eabi-10-2020-q4-major-win32\gcc-arm-none-eabi-10-2020-q4-major\arm-none-eabi\include\c++\10.2.1\bits\basic_string.h ****     public:
 897:c:\gcc-arm-none-eabi-10-2020-q4-major-win32\gcc-arm-none-eabi-10-2020-q4-major\arm-none-eabi\include\c++\10.2.1\bits\basic_string.h ****       // Capacity:
 898:c:\gcc-arm-none-eabi-10-2020-q4-major-win32\gcc-arm-none-eabi-10-2020-q4-major\arm-none-eabi\include\c++\10.2.1\bits\basic_string.h ****       ///  Returns the number of characters in the string, not including any
 899:c:\gcc-arm-none-eabi-10-2020-q4-major-win32\gcc-arm-none-eabi-10-2020-q4-major\arm-none-eabi\include\c++\10.2.1\bits\basic_string.h ****       ///  null-termination.
 900:c:\gcc-arm-none-eabi-10-2020-q4-major-win32\gcc-arm-none-eabi-10-2020-q4-major\arm-none-eabi\include\c++\10.2.1\bits\basic_string.h ****       size_type
 901:c:\gcc-arm-none-eabi-10-2020-q4-major-win32\gcc-arm-none-eabi-10-2020-q4-major\arm-none-eabi\include\c++\10.2.1\bits\basic_string.h ****       size() const _GLIBCXX_NOEXCEPT
 902:c:\gcc-arm-none-eabi-10-2020-q4-major-win32\gcc-arm-none-eabi-10-2020-q4-major\arm-none-eabi\include\c++\10.2.1\bits\basic_string.h ****       { return _M_string_length; }
 903:c:\gcc-arm-none-eabi-10-2020-q4-major-win32\gcc-arm-none-eabi-10-2020-q4-major\arm-none-eabi\include\c++\10.2.1\bits\basic_string.h **** 
 904:c:\gcc-arm-none-eabi-10-2020-q4-major-win32\gcc-arm-none-eabi-10-2020-q4-major\arm-none-eabi\include\c++\10.2.1\bits\basic_string.h ****       ///  Returns the number of characters in the string, not including any
 905:c:\gcc-arm-none-eabi-10-2020-q4-major-win32\gcc-arm-none-eabi-10-2020-q4-major\arm-none-eabi\include\c++\10.2.1\bits\basic_string.h ****       ///  null-termination.
 906:c:\gcc-arm-none-eabi-10-2020-q4-major-win32\gcc-arm-none-eabi-10-2020-q4-major\arm-none-eabi\include\c++\10.2.1\bits\basic_string.h ****       size_type
 907:c:\gcc-arm-none-eabi-10-2020-q4-major-win32\gcc-arm-none-eabi-10-2020-q4-major\arm-none-eabi\include\c++\10.2.1\bits\basic_string.h ****       length() const _GLIBCXX_NOEXCEPT
 908:c:\gcc-arm-none-eabi-10-2020-q4-major-win32\gcc-arm-none-eabi-10-2020-q4-major\arm-none-eabi\include\c++\10.2.1\bits\basic_string.h ****       { return _M_string_length; }
 909:c:\gcc-arm-none-eabi-10-2020-q4-major-win32\gcc-arm-none-eabi-10-2020-q4-major\arm-none-eabi\include\c++\10.2.1\bits\basic_string.h **** 
 910:c:\gcc-arm-none-eabi-10-2020-q4-major-win32\gcc-arm-none-eabi-10-2020-q4-major\arm-none-eabi\include\c++\10.2.1\bits\basic_string.h ****       ///  Returns the size() of the largest possible %string.
 911:c:\gcc-arm-none-eabi-10-2020-q4-major-win32\gcc-arm-none-eabi-10-2020-q4-major\arm-none-eabi\include\c++\10.2.1\bits\basic_string.h ****       size_type
 912:c:\gcc-arm-none-eabi-10-2020-q4-major-win32\gcc-arm-none-eabi-10-2020-q4-major\arm-none-eabi\include\c++\10.2.1\bits\basic_string.h ****       max_size() const _GLIBCXX_NOEXCEPT
 913:c:\gcc-arm-none-eabi-10-2020-q4-major-win32\gcc-arm-none-eabi-10-2020-q4-major\arm-none-eabi\include\c++\10.2.1\bits\basic_string.h ****       { return (_Alloc_traits::max_size(_M_get_allocator()) - 1) / 2; }
 914:c:\gcc-arm-none-eabi-10-2020-q4-major-win32\gcc-arm-none-eabi-10-2020-q4-major\arm-none-eabi\include\c++\10.2.1\bits\basic_string.h **** 
 915:c:\gcc-arm-none-eabi-10-2020-q4-major-win32\gcc-arm-none-eabi-10-2020-q4-major\arm-none-eabi\include\c++\10.2.1\bits\basic_string.h ****       /**
 916:c:\gcc-arm-none-eabi-10-2020-q4-major-win32\gcc-arm-none-eabi-10-2020-q4-major\arm-none-eabi\include\c++\10.2.1\bits\basic_string.h ****        *  @brief  Resizes the %string to the specified number of characters.
 917:c:\gcc-arm-none-eabi-10-2020-q4-major-win32\gcc-arm-none-eabi-10-2020-q4-major\arm-none-eabi\include\c++\10.2.1\bits\basic_string.h ****        *  @param  __n  Number of characters the %string should contain.
 918:c:\gcc-arm-none-eabi-10-2020-q4-major-win32\gcc-arm-none-eabi-10-2020-q4-major\arm-none-eabi\include\c++\10.2.1\bits\basic_string.h ****        *  @param  __c  Character to fill any new elements.
 919:c:\gcc-arm-none-eabi-10-2020-q4-major-win32\gcc-arm-none-eabi-10-2020-q4-major\arm-none-eabi\include\c++\10.2.1\bits\basic_string.h ****        *
 920:c:\gcc-arm-none-eabi-10-2020-q4-major-win32\gcc-arm-none-eabi-10-2020-q4-major\arm-none-eabi\include\c++\10.2.1\bits\basic_string.h ****        *  This function will %resize the %string to the specified
 921:c:\gcc-arm-none-eabi-10-2020-q4-major-win32\gcc-arm-none-eabi-10-2020-q4-major\arm-none-eabi\include\c++\10.2.1\bits\basic_string.h ****        *  number of characters.  If the number is smaller than the
 922:c:\gcc-arm-none-eabi-10-2020-q4-major-win32\gcc-arm-none-eabi-10-2020-q4-major\arm-none-eabi\include\c++\10.2.1\bits\basic_string.h ****        *  %string's current size the %string is truncated, otherwise
 923:c:\gcc-arm-none-eabi-10-2020-q4-major-win32\gcc-arm-none-eabi-10-2020-q4-major\arm-none-eabi\include\c++\10.2.1\bits\basic_string.h ****        *  the %string is extended and new elements are %set to @a __c.
 924:c:\gcc-arm-none-eabi-10-2020-q4-major-win32\gcc-arm-none-eabi-10-2020-q4-major\arm-none-eabi\include\c++\10.2.1\bits\basic_string.h ****        */
 925:c:\gcc-arm-none-eabi-10-2020-q4-major-win32\gcc-arm-none-eabi-10-2020-q4-major\arm-none-eabi\include\c++\10.2.1\bits\basic_string.h ****       void
 926:c:\gcc-arm-none-eabi-10-2020-q4-major-win32\gcc-arm-none-eabi-10-2020-q4-major\arm-none-eabi\include\c++\10.2.1\bits\basic_string.h ****       resize(size_type __n, _CharT __c);
 927:c:\gcc-arm-none-eabi-10-2020-q4-major-win32\gcc-arm-none-eabi-10-2020-q4-major\arm-none-eabi\include\c++\10.2.1\bits\basic_string.h **** 
 928:c:\gcc-arm-none-eabi-10-2020-q4-major-win32\gcc-arm-none-eabi-10-2020-q4-major\arm-none-eabi\include\c++\10.2.1\bits\basic_string.h ****       /**
ARM GAS  C:\Users\hoang\AppData\Local\Temp\ccNMsdI7.s 			page 23


 929:c:\gcc-arm-none-eabi-10-2020-q4-major-win32\gcc-arm-none-eabi-10-2020-q4-major\arm-none-eabi\include\c++\10.2.1\bits\basic_string.h ****        *  @brief  Resizes the %string to the specified number of characters.
 930:c:\gcc-arm-none-eabi-10-2020-q4-major-win32\gcc-arm-none-eabi-10-2020-q4-major\arm-none-eabi\include\c++\10.2.1\bits\basic_string.h ****        *  @param  __n  Number of characters the %string should contain.
 931:c:\gcc-arm-none-eabi-10-2020-q4-major-win32\gcc-arm-none-eabi-10-2020-q4-major\arm-none-eabi\include\c++\10.2.1\bits\basic_string.h ****        *
 932:c:\gcc-arm-none-eabi-10-2020-q4-major-win32\gcc-arm-none-eabi-10-2020-q4-major\arm-none-eabi\include\c++\10.2.1\bits\basic_string.h ****        *  This function will resize the %string to the specified length.  If
 933:c:\gcc-arm-none-eabi-10-2020-q4-major-win32\gcc-arm-none-eabi-10-2020-q4-major\arm-none-eabi\include\c++\10.2.1\bits\basic_string.h ****        *  the new size is smaller than the %string's current size the %string
 934:c:\gcc-arm-none-eabi-10-2020-q4-major-win32\gcc-arm-none-eabi-10-2020-q4-major\arm-none-eabi\include\c++\10.2.1\bits\basic_string.h ****        *  is truncated, otherwise the %string is extended and new characters
 935:c:\gcc-arm-none-eabi-10-2020-q4-major-win32\gcc-arm-none-eabi-10-2020-q4-major\arm-none-eabi\include\c++\10.2.1\bits\basic_string.h ****        *  are default-constructed.  For basic types such as char, this means
 936:c:\gcc-arm-none-eabi-10-2020-q4-major-win32\gcc-arm-none-eabi-10-2020-q4-major\arm-none-eabi\include\c++\10.2.1\bits\basic_string.h ****        *  setting them to 0.
 937:c:\gcc-arm-none-eabi-10-2020-q4-major-win32\gcc-arm-none-eabi-10-2020-q4-major\arm-none-eabi\include\c++\10.2.1\bits\basic_string.h ****        */
 938:c:\gcc-arm-none-eabi-10-2020-q4-major-win32\gcc-arm-none-eabi-10-2020-q4-major\arm-none-eabi\include\c++\10.2.1\bits\basic_string.h ****       void
 939:c:\gcc-arm-none-eabi-10-2020-q4-major-win32\gcc-arm-none-eabi-10-2020-q4-major\arm-none-eabi\include\c++\10.2.1\bits\basic_string.h ****       resize(size_type __n)
 940:c:\gcc-arm-none-eabi-10-2020-q4-major-win32\gcc-arm-none-eabi-10-2020-q4-major\arm-none-eabi\include\c++\10.2.1\bits\basic_string.h ****       { this->resize(__n, _CharT()); }
 941:c:\gcc-arm-none-eabi-10-2020-q4-major-win32\gcc-arm-none-eabi-10-2020-q4-major\arm-none-eabi\include\c++\10.2.1\bits\basic_string.h **** 
 942:c:\gcc-arm-none-eabi-10-2020-q4-major-win32\gcc-arm-none-eabi-10-2020-q4-major\arm-none-eabi\include\c++\10.2.1\bits\basic_string.h **** #if __cplusplus >= 201103L
 943:c:\gcc-arm-none-eabi-10-2020-q4-major-win32\gcc-arm-none-eabi-10-2020-q4-major\arm-none-eabi\include\c++\10.2.1\bits\basic_string.h ****       ///  A non-binding request to reduce capacity() to size().
 944:c:\gcc-arm-none-eabi-10-2020-q4-major-win32\gcc-arm-none-eabi-10-2020-q4-major\arm-none-eabi\include\c++\10.2.1\bits\basic_string.h ****       void
 945:c:\gcc-arm-none-eabi-10-2020-q4-major-win32\gcc-arm-none-eabi-10-2020-q4-major\arm-none-eabi\include\c++\10.2.1\bits\basic_string.h ****       shrink_to_fit() noexcept
 946:c:\gcc-arm-none-eabi-10-2020-q4-major-win32\gcc-arm-none-eabi-10-2020-q4-major\arm-none-eabi\include\c++\10.2.1\bits\basic_string.h ****       {
 947:c:\gcc-arm-none-eabi-10-2020-q4-major-win32\gcc-arm-none-eabi-10-2020-q4-major\arm-none-eabi\include\c++\10.2.1\bits\basic_string.h **** #if __cpp_exceptions
 948:c:\gcc-arm-none-eabi-10-2020-q4-major-win32\gcc-arm-none-eabi-10-2020-q4-major\arm-none-eabi\include\c++\10.2.1\bits\basic_string.h **** 	if (capacity() > size())
 949:c:\gcc-arm-none-eabi-10-2020-q4-major-win32\gcc-arm-none-eabi-10-2020-q4-major\arm-none-eabi\include\c++\10.2.1\bits\basic_string.h **** 	  {
 950:c:\gcc-arm-none-eabi-10-2020-q4-major-win32\gcc-arm-none-eabi-10-2020-q4-major\arm-none-eabi\include\c++\10.2.1\bits\basic_string.h **** 	    try
 951:c:\gcc-arm-none-eabi-10-2020-q4-major-win32\gcc-arm-none-eabi-10-2020-q4-major\arm-none-eabi\include\c++\10.2.1\bits\basic_string.h **** 	      { reserve(0); }
 952:c:\gcc-arm-none-eabi-10-2020-q4-major-win32\gcc-arm-none-eabi-10-2020-q4-major\arm-none-eabi\include\c++\10.2.1\bits\basic_string.h **** 	    catch(...)
 953:c:\gcc-arm-none-eabi-10-2020-q4-major-win32\gcc-arm-none-eabi-10-2020-q4-major\arm-none-eabi\include\c++\10.2.1\bits\basic_string.h **** 	      { }
 954:c:\gcc-arm-none-eabi-10-2020-q4-major-win32\gcc-arm-none-eabi-10-2020-q4-major\arm-none-eabi\include\c++\10.2.1\bits\basic_string.h **** 	  }
 955:c:\gcc-arm-none-eabi-10-2020-q4-major-win32\gcc-arm-none-eabi-10-2020-q4-major\arm-none-eabi\include\c++\10.2.1\bits\basic_string.h **** #endif
 956:c:\gcc-arm-none-eabi-10-2020-q4-major-win32\gcc-arm-none-eabi-10-2020-q4-major\arm-none-eabi\include\c++\10.2.1\bits\basic_string.h ****       }
 957:c:\gcc-arm-none-eabi-10-2020-q4-major-win32\gcc-arm-none-eabi-10-2020-q4-major\arm-none-eabi\include\c++\10.2.1\bits\basic_string.h **** #endif
 958:c:\gcc-arm-none-eabi-10-2020-q4-major-win32\gcc-arm-none-eabi-10-2020-q4-major\arm-none-eabi\include\c++\10.2.1\bits\basic_string.h **** 
 959:c:\gcc-arm-none-eabi-10-2020-q4-major-win32\gcc-arm-none-eabi-10-2020-q4-major\arm-none-eabi\include\c++\10.2.1\bits\basic_string.h ****       /**
 960:c:\gcc-arm-none-eabi-10-2020-q4-major-win32\gcc-arm-none-eabi-10-2020-q4-major\arm-none-eabi\include\c++\10.2.1\bits\basic_string.h ****        *  Returns the total number of characters that the %string can hold
 961:c:\gcc-arm-none-eabi-10-2020-q4-major-win32\gcc-arm-none-eabi-10-2020-q4-major\arm-none-eabi\include\c++\10.2.1\bits\basic_string.h ****        *  before needing to allocate more memory.
 962:c:\gcc-arm-none-eabi-10-2020-q4-major-win32\gcc-arm-none-eabi-10-2020-q4-major\arm-none-eabi\include\c++\10.2.1\bits\basic_string.h ****        */
 963:c:\gcc-arm-none-eabi-10-2020-q4-major-win32\gcc-arm-none-eabi-10-2020-q4-major\arm-none-eabi\include\c++\10.2.1\bits\basic_string.h ****       size_type
 964:c:\gcc-arm-none-eabi-10-2020-q4-major-win32\gcc-arm-none-eabi-10-2020-q4-major\arm-none-eabi\include\c++\10.2.1\bits\basic_string.h ****       capacity() const _GLIBCXX_NOEXCEPT
 965:c:\gcc-arm-none-eabi-10-2020-q4-major-win32\gcc-arm-none-eabi-10-2020-q4-major\arm-none-eabi\include\c++\10.2.1\bits\basic_string.h ****       {
 966:c:\gcc-arm-none-eabi-10-2020-q4-major-win32\gcc-arm-none-eabi-10-2020-q4-major\arm-none-eabi\include\c++\10.2.1\bits\basic_string.h **** 	return _M_is_local() ? size_type(_S_local_capacity)
 967:c:\gcc-arm-none-eabi-10-2020-q4-major-win32\gcc-arm-none-eabi-10-2020-q4-major\arm-none-eabi\include\c++\10.2.1\bits\basic_string.h **** 	                     : _M_allocated_capacity;
 968:c:\gcc-arm-none-eabi-10-2020-q4-major-win32\gcc-arm-none-eabi-10-2020-q4-major\arm-none-eabi\include\c++\10.2.1\bits\basic_string.h ****       }
 969:c:\gcc-arm-none-eabi-10-2020-q4-major-win32\gcc-arm-none-eabi-10-2020-q4-major\arm-none-eabi\include\c++\10.2.1\bits\basic_string.h **** 
 970:c:\gcc-arm-none-eabi-10-2020-q4-major-win32\gcc-arm-none-eabi-10-2020-q4-major\arm-none-eabi\include\c++\10.2.1\bits\basic_string.h ****       /**
 971:c:\gcc-arm-none-eabi-10-2020-q4-major-win32\gcc-arm-none-eabi-10-2020-q4-major\arm-none-eabi\include\c++\10.2.1\bits\basic_string.h ****        *  @brief  Attempt to preallocate enough memory for specified number of
 972:c:\gcc-arm-none-eabi-10-2020-q4-major-win32\gcc-arm-none-eabi-10-2020-q4-major\arm-none-eabi\include\c++\10.2.1\bits\basic_string.h ****        *          characters.
 973:c:\gcc-arm-none-eabi-10-2020-q4-major-win32\gcc-arm-none-eabi-10-2020-q4-major\arm-none-eabi\include\c++\10.2.1\bits\basic_string.h ****        *  @param  __res_arg  Number of characters required.
 974:c:\gcc-arm-none-eabi-10-2020-q4-major-win32\gcc-arm-none-eabi-10-2020-q4-major\arm-none-eabi\include\c++\10.2.1\bits\basic_string.h ****        *  @throw  std::length_error  If @a __res_arg exceeds @c max_size().
 975:c:\gcc-arm-none-eabi-10-2020-q4-major-win32\gcc-arm-none-eabi-10-2020-q4-major\arm-none-eabi\include\c++\10.2.1\bits\basic_string.h ****        *
 976:c:\gcc-arm-none-eabi-10-2020-q4-major-win32\gcc-arm-none-eabi-10-2020-q4-major\arm-none-eabi\include\c++\10.2.1\bits\basic_string.h ****        *  This function attempts to reserve enough memory for the
 977:c:\gcc-arm-none-eabi-10-2020-q4-major-win32\gcc-arm-none-eabi-10-2020-q4-major\arm-none-eabi\include\c++\10.2.1\bits\basic_string.h ****        *  %string to hold the specified number of characters.  If the
 978:c:\gcc-arm-none-eabi-10-2020-q4-major-win32\gcc-arm-none-eabi-10-2020-q4-major\arm-none-eabi\include\c++\10.2.1\bits\basic_string.h ****        *  number requested is more than max_size(), length_error is
 979:c:\gcc-arm-none-eabi-10-2020-q4-major-win32\gcc-arm-none-eabi-10-2020-q4-major\arm-none-eabi\include\c++\10.2.1\bits\basic_string.h ****        *  thrown.
 980:c:\gcc-arm-none-eabi-10-2020-q4-major-win32\gcc-arm-none-eabi-10-2020-q4-major\arm-none-eabi\include\c++\10.2.1\bits\basic_string.h ****        *
 981:c:\gcc-arm-none-eabi-10-2020-q4-major-win32\gcc-arm-none-eabi-10-2020-q4-major\arm-none-eabi\include\c++\10.2.1\bits\basic_string.h ****        *  The advantage of this function is that if optimal code is a
 982:c:\gcc-arm-none-eabi-10-2020-q4-major-win32\gcc-arm-none-eabi-10-2020-q4-major\arm-none-eabi\include\c++\10.2.1\bits\basic_string.h ****        *  necessity and the user can determine the string length that will be
 983:c:\gcc-arm-none-eabi-10-2020-q4-major-win32\gcc-arm-none-eabi-10-2020-q4-major\arm-none-eabi\include\c++\10.2.1\bits\basic_string.h ****        *  required, the user can reserve the memory in %advance, and thus
 984:c:\gcc-arm-none-eabi-10-2020-q4-major-win32\gcc-arm-none-eabi-10-2020-q4-major\arm-none-eabi\include\c++\10.2.1\bits\basic_string.h ****        *  prevent a possible reallocation of memory and copying of %string
 985:c:\gcc-arm-none-eabi-10-2020-q4-major-win32\gcc-arm-none-eabi-10-2020-q4-major\arm-none-eabi\include\c++\10.2.1\bits\basic_string.h ****        *  data.
ARM GAS  C:\Users\hoang\AppData\Local\Temp\ccNMsdI7.s 			page 24


 986:c:\gcc-arm-none-eabi-10-2020-q4-major-win32\gcc-arm-none-eabi-10-2020-q4-major\arm-none-eabi\include\c++\10.2.1\bits\basic_string.h ****        */
 987:c:\gcc-arm-none-eabi-10-2020-q4-major-win32\gcc-arm-none-eabi-10-2020-q4-major\arm-none-eabi\include\c++\10.2.1\bits\basic_string.h ****       void
 988:c:\gcc-arm-none-eabi-10-2020-q4-major-win32\gcc-arm-none-eabi-10-2020-q4-major\arm-none-eabi\include\c++\10.2.1\bits\basic_string.h ****       reserve(size_type __res_arg = 0);
 989:c:\gcc-arm-none-eabi-10-2020-q4-major-win32\gcc-arm-none-eabi-10-2020-q4-major\arm-none-eabi\include\c++\10.2.1\bits\basic_string.h **** 
 990:c:\gcc-arm-none-eabi-10-2020-q4-major-win32\gcc-arm-none-eabi-10-2020-q4-major\arm-none-eabi\include\c++\10.2.1\bits\basic_string.h ****       /**
 991:c:\gcc-arm-none-eabi-10-2020-q4-major-win32\gcc-arm-none-eabi-10-2020-q4-major\arm-none-eabi\include\c++\10.2.1\bits\basic_string.h ****        *  Erases the string, making it empty.
 992:c:\gcc-arm-none-eabi-10-2020-q4-major-win32\gcc-arm-none-eabi-10-2020-q4-major\arm-none-eabi\include\c++\10.2.1\bits\basic_string.h ****        */
 993:c:\gcc-arm-none-eabi-10-2020-q4-major-win32\gcc-arm-none-eabi-10-2020-q4-major\arm-none-eabi\include\c++\10.2.1\bits\basic_string.h ****       void
 994:c:\gcc-arm-none-eabi-10-2020-q4-major-win32\gcc-arm-none-eabi-10-2020-q4-major\arm-none-eabi\include\c++\10.2.1\bits\basic_string.h ****       clear() _GLIBCXX_NOEXCEPT
 995:c:\gcc-arm-none-eabi-10-2020-q4-major-win32\gcc-arm-none-eabi-10-2020-q4-major\arm-none-eabi\include\c++\10.2.1\bits\basic_string.h ****       { _M_set_length(0); }
 996:c:\gcc-arm-none-eabi-10-2020-q4-major-win32\gcc-arm-none-eabi-10-2020-q4-major\arm-none-eabi\include\c++\10.2.1\bits\basic_string.h **** 
 997:c:\gcc-arm-none-eabi-10-2020-q4-major-win32\gcc-arm-none-eabi-10-2020-q4-major\arm-none-eabi\include\c++\10.2.1\bits\basic_string.h ****       /**
 998:c:\gcc-arm-none-eabi-10-2020-q4-major-win32\gcc-arm-none-eabi-10-2020-q4-major\arm-none-eabi\include\c++\10.2.1\bits\basic_string.h ****        *  Returns true if the %string is empty.  Equivalent to 
 999:c:\gcc-arm-none-eabi-10-2020-q4-major-win32\gcc-arm-none-eabi-10-2020-q4-major\arm-none-eabi\include\c++\10.2.1\bits\basic_string.h ****        *  <code>*this == ""</code>.
1000:c:\gcc-arm-none-eabi-10-2020-q4-major-win32\gcc-arm-none-eabi-10-2020-q4-major\arm-none-eabi\include\c++\10.2.1\bits\basic_string.h ****        */
1001:c:\gcc-arm-none-eabi-10-2020-q4-major-win32\gcc-arm-none-eabi-10-2020-q4-major\arm-none-eabi\include\c++\10.2.1\bits\basic_string.h ****       _GLIBCXX_NODISCARD bool
1002:c:\gcc-arm-none-eabi-10-2020-q4-major-win32\gcc-arm-none-eabi-10-2020-q4-major\arm-none-eabi\include\c++\10.2.1\bits\basic_string.h ****       empty() const _GLIBCXX_NOEXCEPT
1003:c:\gcc-arm-none-eabi-10-2020-q4-major-win32\gcc-arm-none-eabi-10-2020-q4-major\arm-none-eabi\include\c++\10.2.1\bits\basic_string.h ****       { return this->size() == 0; }
1004:c:\gcc-arm-none-eabi-10-2020-q4-major-win32\gcc-arm-none-eabi-10-2020-q4-major\arm-none-eabi\include\c++\10.2.1\bits\basic_string.h **** 
1005:c:\gcc-arm-none-eabi-10-2020-q4-major-win32\gcc-arm-none-eabi-10-2020-q4-major\arm-none-eabi\include\c++\10.2.1\bits\basic_string.h ****       // Element access:
1006:c:\gcc-arm-none-eabi-10-2020-q4-major-win32\gcc-arm-none-eabi-10-2020-q4-major\arm-none-eabi\include\c++\10.2.1\bits\basic_string.h ****       /**
1007:c:\gcc-arm-none-eabi-10-2020-q4-major-win32\gcc-arm-none-eabi-10-2020-q4-major\arm-none-eabi\include\c++\10.2.1\bits\basic_string.h ****        *  @brief  Subscript access to the data contained in the %string.
1008:c:\gcc-arm-none-eabi-10-2020-q4-major-win32\gcc-arm-none-eabi-10-2020-q4-major\arm-none-eabi\include\c++\10.2.1\bits\basic_string.h ****        *  @param  __pos  The index of the character to access.
1009:c:\gcc-arm-none-eabi-10-2020-q4-major-win32\gcc-arm-none-eabi-10-2020-q4-major\arm-none-eabi\include\c++\10.2.1\bits\basic_string.h ****        *  @return  Read-only (constant) reference to the character.
1010:c:\gcc-arm-none-eabi-10-2020-q4-major-win32\gcc-arm-none-eabi-10-2020-q4-major\arm-none-eabi\include\c++\10.2.1\bits\basic_string.h ****        *
1011:c:\gcc-arm-none-eabi-10-2020-q4-major-win32\gcc-arm-none-eabi-10-2020-q4-major\arm-none-eabi\include\c++\10.2.1\bits\basic_string.h ****        *  This operator allows for easy, array-style, data access.
1012:c:\gcc-arm-none-eabi-10-2020-q4-major-win32\gcc-arm-none-eabi-10-2020-q4-major\arm-none-eabi\include\c++\10.2.1\bits\basic_string.h ****        *  Note that data access with this operator is unchecked and
1013:c:\gcc-arm-none-eabi-10-2020-q4-major-win32\gcc-arm-none-eabi-10-2020-q4-major\arm-none-eabi\include\c++\10.2.1\bits\basic_string.h ****        *  out_of_range lookups are not defined. (For checked lookups
1014:c:\gcc-arm-none-eabi-10-2020-q4-major-win32\gcc-arm-none-eabi-10-2020-q4-major\arm-none-eabi\include\c++\10.2.1\bits\basic_string.h ****        *  see at().)
1015:c:\gcc-arm-none-eabi-10-2020-q4-major-win32\gcc-arm-none-eabi-10-2020-q4-major\arm-none-eabi\include\c++\10.2.1\bits\basic_string.h ****        */
1016:c:\gcc-arm-none-eabi-10-2020-q4-major-win32\gcc-arm-none-eabi-10-2020-q4-major\arm-none-eabi\include\c++\10.2.1\bits\basic_string.h ****       const_reference
1017:c:\gcc-arm-none-eabi-10-2020-q4-major-win32\gcc-arm-none-eabi-10-2020-q4-major\arm-none-eabi\include\c++\10.2.1\bits\basic_string.h ****       operator[] (size_type __pos) const _GLIBCXX_NOEXCEPT
1018:c:\gcc-arm-none-eabi-10-2020-q4-major-win32\gcc-arm-none-eabi-10-2020-q4-major\arm-none-eabi\include\c++\10.2.1\bits\basic_string.h ****       {
1019:c:\gcc-arm-none-eabi-10-2020-q4-major-win32\gcc-arm-none-eabi-10-2020-q4-major\arm-none-eabi\include\c++\10.2.1\bits\basic_string.h **** 	__glibcxx_assert(__pos <= size());
1020:c:\gcc-arm-none-eabi-10-2020-q4-major-win32\gcc-arm-none-eabi-10-2020-q4-major\arm-none-eabi\include\c++\10.2.1\bits\basic_string.h **** 	return _M_data()[__pos];
1021:c:\gcc-arm-none-eabi-10-2020-q4-major-win32\gcc-arm-none-eabi-10-2020-q4-major\arm-none-eabi\include\c++\10.2.1\bits\basic_string.h ****       }
1022:c:\gcc-arm-none-eabi-10-2020-q4-major-win32\gcc-arm-none-eabi-10-2020-q4-major\arm-none-eabi\include\c++\10.2.1\bits\basic_string.h **** 
1023:c:\gcc-arm-none-eabi-10-2020-q4-major-win32\gcc-arm-none-eabi-10-2020-q4-major\arm-none-eabi\include\c++\10.2.1\bits\basic_string.h ****       /**
1024:c:\gcc-arm-none-eabi-10-2020-q4-major-win32\gcc-arm-none-eabi-10-2020-q4-major\arm-none-eabi\include\c++\10.2.1\bits\basic_string.h ****        *  @brief  Subscript access to the data contained in the %string.
1025:c:\gcc-arm-none-eabi-10-2020-q4-major-win32\gcc-arm-none-eabi-10-2020-q4-major\arm-none-eabi\include\c++\10.2.1\bits\basic_string.h ****        *  @param  __pos  The index of the character to access.
1026:c:\gcc-arm-none-eabi-10-2020-q4-major-win32\gcc-arm-none-eabi-10-2020-q4-major\arm-none-eabi\include\c++\10.2.1\bits\basic_string.h ****        *  @return  Read/write reference to the character.
1027:c:\gcc-arm-none-eabi-10-2020-q4-major-win32\gcc-arm-none-eabi-10-2020-q4-major\arm-none-eabi\include\c++\10.2.1\bits\basic_string.h ****        *
1028:c:\gcc-arm-none-eabi-10-2020-q4-major-win32\gcc-arm-none-eabi-10-2020-q4-major\arm-none-eabi\include\c++\10.2.1\bits\basic_string.h ****        *  This operator allows for easy, array-style, data access.
1029:c:\gcc-arm-none-eabi-10-2020-q4-major-win32\gcc-arm-none-eabi-10-2020-q4-major\arm-none-eabi\include\c++\10.2.1\bits\basic_string.h ****        *  Note that data access with this operator is unchecked and
1030:c:\gcc-arm-none-eabi-10-2020-q4-major-win32\gcc-arm-none-eabi-10-2020-q4-major\arm-none-eabi\include\c++\10.2.1\bits\basic_string.h ****        *  out_of_range lookups are not defined. (For checked lookups
1031:c:\gcc-arm-none-eabi-10-2020-q4-major-win32\gcc-arm-none-eabi-10-2020-q4-major\arm-none-eabi\include\c++\10.2.1\bits\basic_string.h ****        *  see at().)
1032:c:\gcc-arm-none-eabi-10-2020-q4-major-win32\gcc-arm-none-eabi-10-2020-q4-major\arm-none-eabi\include\c++\10.2.1\bits\basic_string.h ****        */
1033:c:\gcc-arm-none-eabi-10-2020-q4-major-win32\gcc-arm-none-eabi-10-2020-q4-major\arm-none-eabi\include\c++\10.2.1\bits\basic_string.h ****       reference
1034:c:\gcc-arm-none-eabi-10-2020-q4-major-win32\gcc-arm-none-eabi-10-2020-q4-major\arm-none-eabi\include\c++\10.2.1\bits\basic_string.h ****       operator[](size_type __pos)
1035:c:\gcc-arm-none-eabi-10-2020-q4-major-win32\gcc-arm-none-eabi-10-2020-q4-major\arm-none-eabi\include\c++\10.2.1\bits\basic_string.h ****       {
1036:c:\gcc-arm-none-eabi-10-2020-q4-major-win32\gcc-arm-none-eabi-10-2020-q4-major\arm-none-eabi\include\c++\10.2.1\bits\basic_string.h ****         // Allow pos == size() both in C++98 mode, as v3 extension,
1037:c:\gcc-arm-none-eabi-10-2020-q4-major-win32\gcc-arm-none-eabi-10-2020-q4-major\arm-none-eabi\include\c++\10.2.1\bits\basic_string.h **** 	// and in C++11 mode.
1038:c:\gcc-arm-none-eabi-10-2020-q4-major-win32\gcc-arm-none-eabi-10-2020-q4-major\arm-none-eabi\include\c++\10.2.1\bits\basic_string.h **** 	__glibcxx_assert(__pos <= size());
1039:c:\gcc-arm-none-eabi-10-2020-q4-major-win32\gcc-arm-none-eabi-10-2020-q4-major\arm-none-eabi\include\c++\10.2.1\bits\basic_string.h ****         // In pedantic mode be strict in C++98 mode.
1040:c:\gcc-arm-none-eabi-10-2020-q4-major-win32\gcc-arm-none-eabi-10-2020-q4-major\arm-none-eabi\include\c++\10.2.1\bits\basic_string.h **** 	_GLIBCXX_DEBUG_PEDASSERT(__cplusplus >= 201103L || __pos < size());
1041:c:\gcc-arm-none-eabi-10-2020-q4-major-win32\gcc-arm-none-eabi-10-2020-q4-major\arm-none-eabi\include\c++\10.2.1\bits\basic_string.h **** 	return _M_data()[__pos];
1042:c:\gcc-arm-none-eabi-10-2020-q4-major-win32\gcc-arm-none-eabi-10-2020-q4-major\arm-none-eabi\include\c++\10.2.1\bits\basic_string.h ****       }
ARM GAS  C:\Users\hoang\AppData\Local\Temp\ccNMsdI7.s 			page 25


1043:c:\gcc-arm-none-eabi-10-2020-q4-major-win32\gcc-arm-none-eabi-10-2020-q4-major\arm-none-eabi\include\c++\10.2.1\bits\basic_string.h **** 
1044:c:\gcc-arm-none-eabi-10-2020-q4-major-win32\gcc-arm-none-eabi-10-2020-q4-major\arm-none-eabi\include\c++\10.2.1\bits\basic_string.h ****       /**
1045:c:\gcc-arm-none-eabi-10-2020-q4-major-win32\gcc-arm-none-eabi-10-2020-q4-major\arm-none-eabi\include\c++\10.2.1\bits\basic_string.h ****        *  @brief  Provides access to the data contained in the %string.
1046:c:\gcc-arm-none-eabi-10-2020-q4-major-win32\gcc-arm-none-eabi-10-2020-q4-major\arm-none-eabi\include\c++\10.2.1\bits\basic_string.h ****        *  @param __n The index of the character to access.
1047:c:\gcc-arm-none-eabi-10-2020-q4-major-win32\gcc-arm-none-eabi-10-2020-q4-major\arm-none-eabi\include\c++\10.2.1\bits\basic_string.h ****        *  @return  Read-only (const) reference to the character.
1048:c:\gcc-arm-none-eabi-10-2020-q4-major-win32\gcc-arm-none-eabi-10-2020-q4-major\arm-none-eabi\include\c++\10.2.1\bits\basic_string.h ****        *  @throw  std::out_of_range  If @a n is an invalid index.
1049:c:\gcc-arm-none-eabi-10-2020-q4-major-win32\gcc-arm-none-eabi-10-2020-q4-major\arm-none-eabi\include\c++\10.2.1\bits\basic_string.h ****        *
1050:c:\gcc-arm-none-eabi-10-2020-q4-major-win32\gcc-arm-none-eabi-10-2020-q4-major\arm-none-eabi\include\c++\10.2.1\bits\basic_string.h ****        *  This function provides for safer data access.  The parameter is
1051:c:\gcc-arm-none-eabi-10-2020-q4-major-win32\gcc-arm-none-eabi-10-2020-q4-major\arm-none-eabi\include\c++\10.2.1\bits\basic_string.h ****        *  first checked that it is in the range of the string.  The function
1052:c:\gcc-arm-none-eabi-10-2020-q4-major-win32\gcc-arm-none-eabi-10-2020-q4-major\arm-none-eabi\include\c++\10.2.1\bits\basic_string.h ****        *  throws out_of_range if the check fails.
1053:c:\gcc-arm-none-eabi-10-2020-q4-major-win32\gcc-arm-none-eabi-10-2020-q4-major\arm-none-eabi\include\c++\10.2.1\bits\basic_string.h ****        */
1054:c:\gcc-arm-none-eabi-10-2020-q4-major-win32\gcc-arm-none-eabi-10-2020-q4-major\arm-none-eabi\include\c++\10.2.1\bits\basic_string.h ****       const_reference
1055:c:\gcc-arm-none-eabi-10-2020-q4-major-win32\gcc-arm-none-eabi-10-2020-q4-major\arm-none-eabi\include\c++\10.2.1\bits\basic_string.h ****       at(size_type __n) const
1056:c:\gcc-arm-none-eabi-10-2020-q4-major-win32\gcc-arm-none-eabi-10-2020-q4-major\arm-none-eabi\include\c++\10.2.1\bits\basic_string.h ****       {
1057:c:\gcc-arm-none-eabi-10-2020-q4-major-win32\gcc-arm-none-eabi-10-2020-q4-major\arm-none-eabi\include\c++\10.2.1\bits\basic_string.h **** 	if (__n >= this->size())
1058:c:\gcc-arm-none-eabi-10-2020-q4-major-win32\gcc-arm-none-eabi-10-2020-q4-major\arm-none-eabi\include\c++\10.2.1\bits\basic_string.h **** 	  __throw_out_of_range_fmt(__N("basic_string::at: __n "
1059:c:\gcc-arm-none-eabi-10-2020-q4-major-win32\gcc-arm-none-eabi-10-2020-q4-major\arm-none-eabi\include\c++\10.2.1\bits\basic_string.h **** 				       "(which is %zu) >= this->size() "
1060:c:\gcc-arm-none-eabi-10-2020-q4-major-win32\gcc-arm-none-eabi-10-2020-q4-major\arm-none-eabi\include\c++\10.2.1\bits\basic_string.h **** 				       "(which is %zu)"),
1061:c:\gcc-arm-none-eabi-10-2020-q4-major-win32\gcc-arm-none-eabi-10-2020-q4-major\arm-none-eabi\include\c++\10.2.1\bits\basic_string.h **** 				   __n, this->size());
1062:c:\gcc-arm-none-eabi-10-2020-q4-major-win32\gcc-arm-none-eabi-10-2020-q4-major\arm-none-eabi\include\c++\10.2.1\bits\basic_string.h **** 	return _M_data()[__n];
1063:c:\gcc-arm-none-eabi-10-2020-q4-major-win32\gcc-arm-none-eabi-10-2020-q4-major\arm-none-eabi\include\c++\10.2.1\bits\basic_string.h ****       }
1064:c:\gcc-arm-none-eabi-10-2020-q4-major-win32\gcc-arm-none-eabi-10-2020-q4-major\arm-none-eabi\include\c++\10.2.1\bits\basic_string.h **** 
1065:c:\gcc-arm-none-eabi-10-2020-q4-major-win32\gcc-arm-none-eabi-10-2020-q4-major\arm-none-eabi\include\c++\10.2.1\bits\basic_string.h ****       /**
1066:c:\gcc-arm-none-eabi-10-2020-q4-major-win32\gcc-arm-none-eabi-10-2020-q4-major\arm-none-eabi\include\c++\10.2.1\bits\basic_string.h ****        *  @brief  Provides access to the data contained in the %string.
1067:c:\gcc-arm-none-eabi-10-2020-q4-major-win32\gcc-arm-none-eabi-10-2020-q4-major\arm-none-eabi\include\c++\10.2.1\bits\basic_string.h ****        *  @param __n The index of the character to access.
1068:c:\gcc-arm-none-eabi-10-2020-q4-major-win32\gcc-arm-none-eabi-10-2020-q4-major\arm-none-eabi\include\c++\10.2.1\bits\basic_string.h ****        *  @return  Read/write reference to the character.
1069:c:\gcc-arm-none-eabi-10-2020-q4-major-win32\gcc-arm-none-eabi-10-2020-q4-major\arm-none-eabi\include\c++\10.2.1\bits\basic_string.h ****        *  @throw  std::out_of_range  If @a n is an invalid index.
1070:c:\gcc-arm-none-eabi-10-2020-q4-major-win32\gcc-arm-none-eabi-10-2020-q4-major\arm-none-eabi\include\c++\10.2.1\bits\basic_string.h ****        *
1071:c:\gcc-arm-none-eabi-10-2020-q4-major-win32\gcc-arm-none-eabi-10-2020-q4-major\arm-none-eabi\include\c++\10.2.1\bits\basic_string.h ****        *  This function provides for safer data access.  The parameter is
1072:c:\gcc-arm-none-eabi-10-2020-q4-major-win32\gcc-arm-none-eabi-10-2020-q4-major\arm-none-eabi\include\c++\10.2.1\bits\basic_string.h ****        *  first checked that it is in the range of the string.  The function
1073:c:\gcc-arm-none-eabi-10-2020-q4-major-win32\gcc-arm-none-eabi-10-2020-q4-major\arm-none-eabi\include\c++\10.2.1\bits\basic_string.h ****        *  throws out_of_range if the check fails.
1074:c:\gcc-arm-none-eabi-10-2020-q4-major-win32\gcc-arm-none-eabi-10-2020-q4-major\arm-none-eabi\include\c++\10.2.1\bits\basic_string.h ****        */
1075:c:\gcc-arm-none-eabi-10-2020-q4-major-win32\gcc-arm-none-eabi-10-2020-q4-major\arm-none-eabi\include\c++\10.2.1\bits\basic_string.h ****       reference
1076:c:\gcc-arm-none-eabi-10-2020-q4-major-win32\gcc-arm-none-eabi-10-2020-q4-major\arm-none-eabi\include\c++\10.2.1\bits\basic_string.h ****       at(size_type __n)
1077:c:\gcc-arm-none-eabi-10-2020-q4-major-win32\gcc-arm-none-eabi-10-2020-q4-major\arm-none-eabi\include\c++\10.2.1\bits\basic_string.h ****       {
1078:c:\gcc-arm-none-eabi-10-2020-q4-major-win32\gcc-arm-none-eabi-10-2020-q4-major\arm-none-eabi\include\c++\10.2.1\bits\basic_string.h **** 	if (__n >= size())
1079:c:\gcc-arm-none-eabi-10-2020-q4-major-win32\gcc-arm-none-eabi-10-2020-q4-major\arm-none-eabi\include\c++\10.2.1\bits\basic_string.h **** 	  __throw_out_of_range_fmt(__N("basic_string::at: __n "
1080:c:\gcc-arm-none-eabi-10-2020-q4-major-win32\gcc-arm-none-eabi-10-2020-q4-major\arm-none-eabi\include\c++\10.2.1\bits\basic_string.h **** 				       "(which is %zu) >= this->size() "
1081:c:\gcc-arm-none-eabi-10-2020-q4-major-win32\gcc-arm-none-eabi-10-2020-q4-major\arm-none-eabi\include\c++\10.2.1\bits\basic_string.h **** 				       "(which is %zu)"),
1082:c:\gcc-arm-none-eabi-10-2020-q4-major-win32\gcc-arm-none-eabi-10-2020-q4-major\arm-none-eabi\include\c++\10.2.1\bits\basic_string.h **** 				   __n, this->size());
1083:c:\gcc-arm-none-eabi-10-2020-q4-major-win32\gcc-arm-none-eabi-10-2020-q4-major\arm-none-eabi\include\c++\10.2.1\bits\basic_string.h **** 	return _M_data()[__n];
1084:c:\gcc-arm-none-eabi-10-2020-q4-major-win32\gcc-arm-none-eabi-10-2020-q4-major\arm-none-eabi\include\c++\10.2.1\bits\basic_string.h ****       }
1085:c:\gcc-arm-none-eabi-10-2020-q4-major-win32\gcc-arm-none-eabi-10-2020-q4-major\arm-none-eabi\include\c++\10.2.1\bits\basic_string.h **** 
1086:c:\gcc-arm-none-eabi-10-2020-q4-major-win32\gcc-arm-none-eabi-10-2020-q4-major\arm-none-eabi\include\c++\10.2.1\bits\basic_string.h **** #if __cplusplus >= 201103L
1087:c:\gcc-arm-none-eabi-10-2020-q4-major-win32\gcc-arm-none-eabi-10-2020-q4-major\arm-none-eabi\include\c++\10.2.1\bits\basic_string.h ****       /**
1088:c:\gcc-arm-none-eabi-10-2020-q4-major-win32\gcc-arm-none-eabi-10-2020-q4-major\arm-none-eabi\include\c++\10.2.1\bits\basic_string.h ****        *  Returns a read/write reference to the data at the first
1089:c:\gcc-arm-none-eabi-10-2020-q4-major-win32\gcc-arm-none-eabi-10-2020-q4-major\arm-none-eabi\include\c++\10.2.1\bits\basic_string.h ****        *  element of the %string.
1090:c:\gcc-arm-none-eabi-10-2020-q4-major-win32\gcc-arm-none-eabi-10-2020-q4-major\arm-none-eabi\include\c++\10.2.1\bits\basic_string.h ****        */
1091:c:\gcc-arm-none-eabi-10-2020-q4-major-win32\gcc-arm-none-eabi-10-2020-q4-major\arm-none-eabi\include\c++\10.2.1\bits\basic_string.h ****       reference
1092:c:\gcc-arm-none-eabi-10-2020-q4-major-win32\gcc-arm-none-eabi-10-2020-q4-major\arm-none-eabi\include\c++\10.2.1\bits\basic_string.h ****       front() noexcept
1093:c:\gcc-arm-none-eabi-10-2020-q4-major-win32\gcc-arm-none-eabi-10-2020-q4-major\arm-none-eabi\include\c++\10.2.1\bits\basic_string.h ****       {
1094:c:\gcc-arm-none-eabi-10-2020-q4-major-win32\gcc-arm-none-eabi-10-2020-q4-major\arm-none-eabi\include\c++\10.2.1\bits\basic_string.h **** 	__glibcxx_assert(!empty());
1095:c:\gcc-arm-none-eabi-10-2020-q4-major-win32\gcc-arm-none-eabi-10-2020-q4-major\arm-none-eabi\include\c++\10.2.1\bits\basic_string.h **** 	return operator[](0);
1096:c:\gcc-arm-none-eabi-10-2020-q4-major-win32\gcc-arm-none-eabi-10-2020-q4-major\arm-none-eabi\include\c++\10.2.1\bits\basic_string.h ****       }
1097:c:\gcc-arm-none-eabi-10-2020-q4-major-win32\gcc-arm-none-eabi-10-2020-q4-major\arm-none-eabi\include\c++\10.2.1\bits\basic_string.h **** 
1098:c:\gcc-arm-none-eabi-10-2020-q4-major-win32\gcc-arm-none-eabi-10-2020-q4-major\arm-none-eabi\include\c++\10.2.1\bits\basic_string.h ****       /**
1099:c:\gcc-arm-none-eabi-10-2020-q4-major-win32\gcc-arm-none-eabi-10-2020-q4-major\arm-none-eabi\include\c++\10.2.1\bits\basic_string.h ****        *  Returns a read-only (constant) reference to the data at the first
ARM GAS  C:\Users\hoang\AppData\Local\Temp\ccNMsdI7.s 			page 26


1100:c:\gcc-arm-none-eabi-10-2020-q4-major-win32\gcc-arm-none-eabi-10-2020-q4-major\arm-none-eabi\include\c++\10.2.1\bits\basic_string.h ****        *  element of the %string.
1101:c:\gcc-arm-none-eabi-10-2020-q4-major-win32\gcc-arm-none-eabi-10-2020-q4-major\arm-none-eabi\include\c++\10.2.1\bits\basic_string.h ****        */
1102:c:\gcc-arm-none-eabi-10-2020-q4-major-win32\gcc-arm-none-eabi-10-2020-q4-major\arm-none-eabi\include\c++\10.2.1\bits\basic_string.h ****       const_reference
1103:c:\gcc-arm-none-eabi-10-2020-q4-major-win32\gcc-arm-none-eabi-10-2020-q4-major\arm-none-eabi\include\c++\10.2.1\bits\basic_string.h ****       front() const noexcept
1104:c:\gcc-arm-none-eabi-10-2020-q4-major-win32\gcc-arm-none-eabi-10-2020-q4-major\arm-none-eabi\include\c++\10.2.1\bits\basic_string.h ****       {
1105:c:\gcc-arm-none-eabi-10-2020-q4-major-win32\gcc-arm-none-eabi-10-2020-q4-major\arm-none-eabi\include\c++\10.2.1\bits\basic_string.h **** 	__glibcxx_assert(!empty());
1106:c:\gcc-arm-none-eabi-10-2020-q4-major-win32\gcc-arm-none-eabi-10-2020-q4-major\arm-none-eabi\include\c++\10.2.1\bits\basic_string.h **** 	return operator[](0);
1107:c:\gcc-arm-none-eabi-10-2020-q4-major-win32\gcc-arm-none-eabi-10-2020-q4-major\arm-none-eabi\include\c++\10.2.1\bits\basic_string.h ****       }
1108:c:\gcc-arm-none-eabi-10-2020-q4-major-win32\gcc-arm-none-eabi-10-2020-q4-major\arm-none-eabi\include\c++\10.2.1\bits\basic_string.h **** 
1109:c:\gcc-arm-none-eabi-10-2020-q4-major-win32\gcc-arm-none-eabi-10-2020-q4-major\arm-none-eabi\include\c++\10.2.1\bits\basic_string.h ****       /**
1110:c:\gcc-arm-none-eabi-10-2020-q4-major-win32\gcc-arm-none-eabi-10-2020-q4-major\arm-none-eabi\include\c++\10.2.1\bits\basic_string.h ****        *  Returns a read/write reference to the data at the last
1111:c:\gcc-arm-none-eabi-10-2020-q4-major-win32\gcc-arm-none-eabi-10-2020-q4-major\arm-none-eabi\include\c++\10.2.1\bits\basic_string.h ****        *  element of the %string.
1112:c:\gcc-arm-none-eabi-10-2020-q4-major-win32\gcc-arm-none-eabi-10-2020-q4-major\arm-none-eabi\include\c++\10.2.1\bits\basic_string.h ****        */
1113:c:\gcc-arm-none-eabi-10-2020-q4-major-win32\gcc-arm-none-eabi-10-2020-q4-major\arm-none-eabi\include\c++\10.2.1\bits\basic_string.h ****       reference
1114:c:\gcc-arm-none-eabi-10-2020-q4-major-win32\gcc-arm-none-eabi-10-2020-q4-major\arm-none-eabi\include\c++\10.2.1\bits\basic_string.h ****       back() noexcept
1115:c:\gcc-arm-none-eabi-10-2020-q4-major-win32\gcc-arm-none-eabi-10-2020-q4-major\arm-none-eabi\include\c++\10.2.1\bits\basic_string.h ****       {
1116:c:\gcc-arm-none-eabi-10-2020-q4-major-win32\gcc-arm-none-eabi-10-2020-q4-major\arm-none-eabi\include\c++\10.2.1\bits\basic_string.h **** 	__glibcxx_assert(!empty());
1117:c:\gcc-arm-none-eabi-10-2020-q4-major-win32\gcc-arm-none-eabi-10-2020-q4-major\arm-none-eabi\include\c++\10.2.1\bits\basic_string.h **** 	return operator[](this->size() - 1);
1118:c:\gcc-arm-none-eabi-10-2020-q4-major-win32\gcc-arm-none-eabi-10-2020-q4-major\arm-none-eabi\include\c++\10.2.1\bits\basic_string.h ****       }
1119:c:\gcc-arm-none-eabi-10-2020-q4-major-win32\gcc-arm-none-eabi-10-2020-q4-major\arm-none-eabi\include\c++\10.2.1\bits\basic_string.h **** 
1120:c:\gcc-arm-none-eabi-10-2020-q4-major-win32\gcc-arm-none-eabi-10-2020-q4-major\arm-none-eabi\include\c++\10.2.1\bits\basic_string.h ****       /**
1121:c:\gcc-arm-none-eabi-10-2020-q4-major-win32\gcc-arm-none-eabi-10-2020-q4-major\arm-none-eabi\include\c++\10.2.1\bits\basic_string.h ****        *  Returns a read-only (constant) reference to the data at the
1122:c:\gcc-arm-none-eabi-10-2020-q4-major-win32\gcc-arm-none-eabi-10-2020-q4-major\arm-none-eabi\include\c++\10.2.1\bits\basic_string.h ****        *  last element of the %string.
1123:c:\gcc-arm-none-eabi-10-2020-q4-major-win32\gcc-arm-none-eabi-10-2020-q4-major\arm-none-eabi\include\c++\10.2.1\bits\basic_string.h ****        */
1124:c:\gcc-arm-none-eabi-10-2020-q4-major-win32\gcc-arm-none-eabi-10-2020-q4-major\arm-none-eabi\include\c++\10.2.1\bits\basic_string.h ****       const_reference
1125:c:\gcc-arm-none-eabi-10-2020-q4-major-win32\gcc-arm-none-eabi-10-2020-q4-major\arm-none-eabi\include\c++\10.2.1\bits\basic_string.h ****       back() const noexcept
1126:c:\gcc-arm-none-eabi-10-2020-q4-major-win32\gcc-arm-none-eabi-10-2020-q4-major\arm-none-eabi\include\c++\10.2.1\bits\basic_string.h ****       {
1127:c:\gcc-arm-none-eabi-10-2020-q4-major-win32\gcc-arm-none-eabi-10-2020-q4-major\arm-none-eabi\include\c++\10.2.1\bits\basic_string.h **** 	__glibcxx_assert(!empty());
1128:c:\gcc-arm-none-eabi-10-2020-q4-major-win32\gcc-arm-none-eabi-10-2020-q4-major\arm-none-eabi\include\c++\10.2.1\bits\basic_string.h **** 	return operator[](this->size() - 1);
1129:c:\gcc-arm-none-eabi-10-2020-q4-major-win32\gcc-arm-none-eabi-10-2020-q4-major\arm-none-eabi\include\c++\10.2.1\bits\basic_string.h ****       }
1130:c:\gcc-arm-none-eabi-10-2020-q4-major-win32\gcc-arm-none-eabi-10-2020-q4-major\arm-none-eabi\include\c++\10.2.1\bits\basic_string.h **** #endif
1131:c:\gcc-arm-none-eabi-10-2020-q4-major-win32\gcc-arm-none-eabi-10-2020-q4-major\arm-none-eabi\include\c++\10.2.1\bits\basic_string.h **** 
1132:c:\gcc-arm-none-eabi-10-2020-q4-major-win32\gcc-arm-none-eabi-10-2020-q4-major\arm-none-eabi\include\c++\10.2.1\bits\basic_string.h ****       // Modifiers:
1133:c:\gcc-arm-none-eabi-10-2020-q4-major-win32\gcc-arm-none-eabi-10-2020-q4-major\arm-none-eabi\include\c++\10.2.1\bits\basic_string.h ****       /**
1134:c:\gcc-arm-none-eabi-10-2020-q4-major-win32\gcc-arm-none-eabi-10-2020-q4-major\arm-none-eabi\include\c++\10.2.1\bits\basic_string.h ****        *  @brief  Append a string to this string.
1135:c:\gcc-arm-none-eabi-10-2020-q4-major-win32\gcc-arm-none-eabi-10-2020-q4-major\arm-none-eabi\include\c++\10.2.1\bits\basic_string.h ****        *  @param __str  The string to append.
1136:c:\gcc-arm-none-eabi-10-2020-q4-major-win32\gcc-arm-none-eabi-10-2020-q4-major\arm-none-eabi\include\c++\10.2.1\bits\basic_string.h ****        *  @return  Reference to this string.
1137:c:\gcc-arm-none-eabi-10-2020-q4-major-win32\gcc-arm-none-eabi-10-2020-q4-major\arm-none-eabi\include\c++\10.2.1\bits\basic_string.h ****        */
1138:c:\gcc-arm-none-eabi-10-2020-q4-major-win32\gcc-arm-none-eabi-10-2020-q4-major\arm-none-eabi\include\c++\10.2.1\bits\basic_string.h ****       basic_string&
1139:c:\gcc-arm-none-eabi-10-2020-q4-major-win32\gcc-arm-none-eabi-10-2020-q4-major\arm-none-eabi\include\c++\10.2.1\bits\basic_string.h ****       operator+=(const basic_string& __str)
1140:c:\gcc-arm-none-eabi-10-2020-q4-major-win32\gcc-arm-none-eabi-10-2020-q4-major\arm-none-eabi\include\c++\10.2.1\bits\basic_string.h ****       { return this->append(__str); }
1141:c:\gcc-arm-none-eabi-10-2020-q4-major-win32\gcc-arm-none-eabi-10-2020-q4-major\arm-none-eabi\include\c++\10.2.1\bits\basic_string.h **** 
1142:c:\gcc-arm-none-eabi-10-2020-q4-major-win32\gcc-arm-none-eabi-10-2020-q4-major\arm-none-eabi\include\c++\10.2.1\bits\basic_string.h ****       /**
1143:c:\gcc-arm-none-eabi-10-2020-q4-major-win32\gcc-arm-none-eabi-10-2020-q4-major\arm-none-eabi\include\c++\10.2.1\bits\basic_string.h ****        *  @brief  Append a C string.
1144:c:\gcc-arm-none-eabi-10-2020-q4-major-win32\gcc-arm-none-eabi-10-2020-q4-major\arm-none-eabi\include\c++\10.2.1\bits\basic_string.h ****        *  @param __s  The C string to append.
1145:c:\gcc-arm-none-eabi-10-2020-q4-major-win32\gcc-arm-none-eabi-10-2020-q4-major\arm-none-eabi\include\c++\10.2.1\bits\basic_string.h ****        *  @return  Reference to this string.
1146:c:\gcc-arm-none-eabi-10-2020-q4-major-win32\gcc-arm-none-eabi-10-2020-q4-major\arm-none-eabi\include\c++\10.2.1\bits\basic_string.h ****        */
1147:c:\gcc-arm-none-eabi-10-2020-q4-major-win32\gcc-arm-none-eabi-10-2020-q4-major\arm-none-eabi\include\c++\10.2.1\bits\basic_string.h ****       basic_string&
1148:c:\gcc-arm-none-eabi-10-2020-q4-major-win32\gcc-arm-none-eabi-10-2020-q4-major\arm-none-eabi\include\c++\10.2.1\bits\basic_string.h ****       operator+=(const _CharT* __s)
1149:c:\gcc-arm-none-eabi-10-2020-q4-major-win32\gcc-arm-none-eabi-10-2020-q4-major\arm-none-eabi\include\c++\10.2.1\bits\basic_string.h ****       { return this->append(__s); }
1150:c:\gcc-arm-none-eabi-10-2020-q4-major-win32\gcc-arm-none-eabi-10-2020-q4-major\arm-none-eabi\include\c++\10.2.1\bits\basic_string.h **** 
1151:c:\gcc-arm-none-eabi-10-2020-q4-major-win32\gcc-arm-none-eabi-10-2020-q4-major\arm-none-eabi\include\c++\10.2.1\bits\basic_string.h ****       /**
1152:c:\gcc-arm-none-eabi-10-2020-q4-major-win32\gcc-arm-none-eabi-10-2020-q4-major\arm-none-eabi\include\c++\10.2.1\bits\basic_string.h ****        *  @brief  Append a character.
1153:c:\gcc-arm-none-eabi-10-2020-q4-major-win32\gcc-arm-none-eabi-10-2020-q4-major\arm-none-eabi\include\c++\10.2.1\bits\basic_string.h ****        *  @param __c  The character to append.
1154:c:\gcc-arm-none-eabi-10-2020-q4-major-win32\gcc-arm-none-eabi-10-2020-q4-major\arm-none-eabi\include\c++\10.2.1\bits\basic_string.h ****        *  @return  Reference to this string.
1155:c:\gcc-arm-none-eabi-10-2020-q4-major-win32\gcc-arm-none-eabi-10-2020-q4-major\arm-none-eabi\include\c++\10.2.1\bits\basic_string.h ****        */
1156:c:\gcc-arm-none-eabi-10-2020-q4-major-win32\gcc-arm-none-eabi-10-2020-q4-major\arm-none-eabi\include\c++\10.2.1\bits\basic_string.h ****       basic_string&
ARM GAS  C:\Users\hoang\AppData\Local\Temp\ccNMsdI7.s 			page 27


1157:c:\gcc-arm-none-eabi-10-2020-q4-major-win32\gcc-arm-none-eabi-10-2020-q4-major\arm-none-eabi\include\c++\10.2.1\bits\basic_string.h ****       operator+=(_CharT __c)
1158:c:\gcc-arm-none-eabi-10-2020-q4-major-win32\gcc-arm-none-eabi-10-2020-q4-major\arm-none-eabi\include\c++\10.2.1\bits\basic_string.h ****       {
1159:c:\gcc-arm-none-eabi-10-2020-q4-major-win32\gcc-arm-none-eabi-10-2020-q4-major\arm-none-eabi\include\c++\10.2.1\bits\basic_string.h **** 	this->push_back(__c);
1160:c:\gcc-arm-none-eabi-10-2020-q4-major-win32\gcc-arm-none-eabi-10-2020-q4-major\arm-none-eabi\include\c++\10.2.1\bits\basic_string.h **** 	return *this;
1161:c:\gcc-arm-none-eabi-10-2020-q4-major-win32\gcc-arm-none-eabi-10-2020-q4-major\arm-none-eabi\include\c++\10.2.1\bits\basic_string.h ****       }
1162:c:\gcc-arm-none-eabi-10-2020-q4-major-win32\gcc-arm-none-eabi-10-2020-q4-major\arm-none-eabi\include\c++\10.2.1\bits\basic_string.h **** 
1163:c:\gcc-arm-none-eabi-10-2020-q4-major-win32\gcc-arm-none-eabi-10-2020-q4-major\arm-none-eabi\include\c++\10.2.1\bits\basic_string.h **** #if __cplusplus >= 201103L
1164:c:\gcc-arm-none-eabi-10-2020-q4-major-win32\gcc-arm-none-eabi-10-2020-q4-major\arm-none-eabi\include\c++\10.2.1\bits\basic_string.h ****       /**
1165:c:\gcc-arm-none-eabi-10-2020-q4-major-win32\gcc-arm-none-eabi-10-2020-q4-major\arm-none-eabi\include\c++\10.2.1\bits\basic_string.h ****        *  @brief  Append an initializer_list of characters.
1166:c:\gcc-arm-none-eabi-10-2020-q4-major-win32\gcc-arm-none-eabi-10-2020-q4-major\arm-none-eabi\include\c++\10.2.1\bits\basic_string.h ****        *  @param __l  The initializer_list of characters to be appended.
1167:c:\gcc-arm-none-eabi-10-2020-q4-major-win32\gcc-arm-none-eabi-10-2020-q4-major\arm-none-eabi\include\c++\10.2.1\bits\basic_string.h ****        *  @return  Reference to this string.
1168:c:\gcc-arm-none-eabi-10-2020-q4-major-win32\gcc-arm-none-eabi-10-2020-q4-major\arm-none-eabi\include\c++\10.2.1\bits\basic_string.h ****        */
1169:c:\gcc-arm-none-eabi-10-2020-q4-major-win32\gcc-arm-none-eabi-10-2020-q4-major\arm-none-eabi\include\c++\10.2.1\bits\basic_string.h ****       basic_string&
1170:c:\gcc-arm-none-eabi-10-2020-q4-major-win32\gcc-arm-none-eabi-10-2020-q4-major\arm-none-eabi\include\c++\10.2.1\bits\basic_string.h ****       operator+=(initializer_list<_CharT> __l)
1171:c:\gcc-arm-none-eabi-10-2020-q4-major-win32\gcc-arm-none-eabi-10-2020-q4-major\arm-none-eabi\include\c++\10.2.1\bits\basic_string.h ****       { return this->append(__l.begin(), __l.size()); }
1172:c:\gcc-arm-none-eabi-10-2020-q4-major-win32\gcc-arm-none-eabi-10-2020-q4-major\arm-none-eabi\include\c++\10.2.1\bits\basic_string.h **** #endif // C++11
1173:c:\gcc-arm-none-eabi-10-2020-q4-major-win32\gcc-arm-none-eabi-10-2020-q4-major\arm-none-eabi\include\c++\10.2.1\bits\basic_string.h **** 
1174:c:\gcc-arm-none-eabi-10-2020-q4-major-win32\gcc-arm-none-eabi-10-2020-q4-major\arm-none-eabi\include\c++\10.2.1\bits\basic_string.h **** #if __cplusplus >= 201703L
1175:c:\gcc-arm-none-eabi-10-2020-q4-major-win32\gcc-arm-none-eabi-10-2020-q4-major\arm-none-eabi\include\c++\10.2.1\bits\basic_string.h ****       /**
1176:c:\gcc-arm-none-eabi-10-2020-q4-major-win32\gcc-arm-none-eabi-10-2020-q4-major\arm-none-eabi\include\c++\10.2.1\bits\basic_string.h ****        *  @brief  Append a string_view.
1177:c:\gcc-arm-none-eabi-10-2020-q4-major-win32\gcc-arm-none-eabi-10-2020-q4-major\arm-none-eabi\include\c++\10.2.1\bits\basic_string.h ****        *  @param __svt  An object convertible to string_view to be appended.
1178:c:\gcc-arm-none-eabi-10-2020-q4-major-win32\gcc-arm-none-eabi-10-2020-q4-major\arm-none-eabi\include\c++\10.2.1\bits\basic_string.h ****        *  @return  Reference to this string.
1179:c:\gcc-arm-none-eabi-10-2020-q4-major-win32\gcc-arm-none-eabi-10-2020-q4-major\arm-none-eabi\include\c++\10.2.1\bits\basic_string.h ****        */
1180:c:\gcc-arm-none-eabi-10-2020-q4-major-win32\gcc-arm-none-eabi-10-2020-q4-major\arm-none-eabi\include\c++\10.2.1\bits\basic_string.h ****       template<typename _Tp>
1181:c:\gcc-arm-none-eabi-10-2020-q4-major-win32\gcc-arm-none-eabi-10-2020-q4-major\arm-none-eabi\include\c++\10.2.1\bits\basic_string.h **** 	_If_sv<_Tp, basic_string&>
1182:c:\gcc-arm-none-eabi-10-2020-q4-major-win32\gcc-arm-none-eabi-10-2020-q4-major\arm-none-eabi\include\c++\10.2.1\bits\basic_string.h **** 	operator+=(const _Tp& __svt)
1183:c:\gcc-arm-none-eabi-10-2020-q4-major-win32\gcc-arm-none-eabi-10-2020-q4-major\arm-none-eabi\include\c++\10.2.1\bits\basic_string.h **** 	{ return this->append(__svt); }
1184:c:\gcc-arm-none-eabi-10-2020-q4-major-win32\gcc-arm-none-eabi-10-2020-q4-major\arm-none-eabi\include\c++\10.2.1\bits\basic_string.h **** #endif // C++17
1185:c:\gcc-arm-none-eabi-10-2020-q4-major-win32\gcc-arm-none-eabi-10-2020-q4-major\arm-none-eabi\include\c++\10.2.1\bits\basic_string.h **** 
1186:c:\gcc-arm-none-eabi-10-2020-q4-major-win32\gcc-arm-none-eabi-10-2020-q4-major\arm-none-eabi\include\c++\10.2.1\bits\basic_string.h ****       /**
1187:c:\gcc-arm-none-eabi-10-2020-q4-major-win32\gcc-arm-none-eabi-10-2020-q4-major\arm-none-eabi\include\c++\10.2.1\bits\basic_string.h ****        *  @brief  Append a string to this string.
1188:c:\gcc-arm-none-eabi-10-2020-q4-major-win32\gcc-arm-none-eabi-10-2020-q4-major\arm-none-eabi\include\c++\10.2.1\bits\basic_string.h ****        *  @param __str  The string to append.
1189:c:\gcc-arm-none-eabi-10-2020-q4-major-win32\gcc-arm-none-eabi-10-2020-q4-major\arm-none-eabi\include\c++\10.2.1\bits\basic_string.h ****        *  @return  Reference to this string.
1190:c:\gcc-arm-none-eabi-10-2020-q4-major-win32\gcc-arm-none-eabi-10-2020-q4-major\arm-none-eabi\include\c++\10.2.1\bits\basic_string.h ****        */
1191:c:\gcc-arm-none-eabi-10-2020-q4-major-win32\gcc-arm-none-eabi-10-2020-q4-major\arm-none-eabi\include\c++\10.2.1\bits\basic_string.h ****       basic_string&
1192:c:\gcc-arm-none-eabi-10-2020-q4-major-win32\gcc-arm-none-eabi-10-2020-q4-major\arm-none-eabi\include\c++\10.2.1\bits\basic_string.h ****       append(const basic_string& __str)
1193:c:\gcc-arm-none-eabi-10-2020-q4-major-win32\gcc-arm-none-eabi-10-2020-q4-major\arm-none-eabi\include\c++\10.2.1\bits\basic_string.h ****       { return _M_append(__str._M_data(), __str.size()); }
1194:c:\gcc-arm-none-eabi-10-2020-q4-major-win32\gcc-arm-none-eabi-10-2020-q4-major\arm-none-eabi\include\c++\10.2.1\bits\basic_string.h **** 
1195:c:\gcc-arm-none-eabi-10-2020-q4-major-win32\gcc-arm-none-eabi-10-2020-q4-major\arm-none-eabi\include\c++\10.2.1\bits\basic_string.h ****       /**
1196:c:\gcc-arm-none-eabi-10-2020-q4-major-win32\gcc-arm-none-eabi-10-2020-q4-major\arm-none-eabi\include\c++\10.2.1\bits\basic_string.h ****        *  @brief  Append a substring.
1197:c:\gcc-arm-none-eabi-10-2020-q4-major-win32\gcc-arm-none-eabi-10-2020-q4-major\arm-none-eabi\include\c++\10.2.1\bits\basic_string.h ****        *  @param __str  The string to append.
1198:c:\gcc-arm-none-eabi-10-2020-q4-major-win32\gcc-arm-none-eabi-10-2020-q4-major\arm-none-eabi\include\c++\10.2.1\bits\basic_string.h ****        *  @param __pos  Index of the first character of str to append.
1199:c:\gcc-arm-none-eabi-10-2020-q4-major-win32\gcc-arm-none-eabi-10-2020-q4-major\arm-none-eabi\include\c++\10.2.1\bits\basic_string.h ****        *  @param __n  The number of characters to append.
1200:c:\gcc-arm-none-eabi-10-2020-q4-major-win32\gcc-arm-none-eabi-10-2020-q4-major\arm-none-eabi\include\c++\10.2.1\bits\basic_string.h ****        *  @return  Reference to this string.
1201:c:\gcc-arm-none-eabi-10-2020-q4-major-win32\gcc-arm-none-eabi-10-2020-q4-major\arm-none-eabi\include\c++\10.2.1\bits\basic_string.h ****        *  @throw  std::out_of_range if @a __pos is not a valid index.
1202:c:\gcc-arm-none-eabi-10-2020-q4-major-win32\gcc-arm-none-eabi-10-2020-q4-major\arm-none-eabi\include\c++\10.2.1\bits\basic_string.h ****        *
1203:c:\gcc-arm-none-eabi-10-2020-q4-major-win32\gcc-arm-none-eabi-10-2020-q4-major\arm-none-eabi\include\c++\10.2.1\bits\basic_string.h ****        *  This function appends @a __n characters from @a __str
1204:c:\gcc-arm-none-eabi-10-2020-q4-major-win32\gcc-arm-none-eabi-10-2020-q4-major\arm-none-eabi\include\c++\10.2.1\bits\basic_string.h ****        *  starting at @a __pos to this string.  If @a __n is is larger
1205:c:\gcc-arm-none-eabi-10-2020-q4-major-win32\gcc-arm-none-eabi-10-2020-q4-major\arm-none-eabi\include\c++\10.2.1\bits\basic_string.h ****        *  than the number of available characters in @a __str, the
1206:c:\gcc-arm-none-eabi-10-2020-q4-major-win32\gcc-arm-none-eabi-10-2020-q4-major\arm-none-eabi\include\c++\10.2.1\bits\basic_string.h ****        *  remainder of @a __str is appended.
1207:c:\gcc-arm-none-eabi-10-2020-q4-major-win32\gcc-arm-none-eabi-10-2020-q4-major\arm-none-eabi\include\c++\10.2.1\bits\basic_string.h ****        */
1208:c:\gcc-arm-none-eabi-10-2020-q4-major-win32\gcc-arm-none-eabi-10-2020-q4-major\arm-none-eabi\include\c++\10.2.1\bits\basic_string.h ****       basic_string&
1209:c:\gcc-arm-none-eabi-10-2020-q4-major-win32\gcc-arm-none-eabi-10-2020-q4-major\arm-none-eabi\include\c++\10.2.1\bits\basic_string.h ****       append(const basic_string& __str, size_type __pos, size_type __n = npos)
1210:c:\gcc-arm-none-eabi-10-2020-q4-major-win32\gcc-arm-none-eabi-10-2020-q4-major\arm-none-eabi\include\c++\10.2.1\bits\basic_string.h ****       { return _M_append(__str._M_data()
1211:c:\gcc-arm-none-eabi-10-2020-q4-major-win32\gcc-arm-none-eabi-10-2020-q4-major\arm-none-eabi\include\c++\10.2.1\bits\basic_string.h **** 			 + __str._M_check(__pos, "basic_string::append"),
1212:c:\gcc-arm-none-eabi-10-2020-q4-major-win32\gcc-arm-none-eabi-10-2020-q4-major\arm-none-eabi\include\c++\10.2.1\bits\basic_string.h **** 			 __str._M_limit(__pos, __n)); }
1213:c:\gcc-arm-none-eabi-10-2020-q4-major-win32\gcc-arm-none-eabi-10-2020-q4-major\arm-none-eabi\include\c++\10.2.1\bits\basic_string.h **** 
ARM GAS  C:\Users\hoang\AppData\Local\Temp\ccNMsdI7.s 			page 28


1214:c:\gcc-arm-none-eabi-10-2020-q4-major-win32\gcc-arm-none-eabi-10-2020-q4-major\arm-none-eabi\include\c++\10.2.1\bits\basic_string.h ****       /**
1215:c:\gcc-arm-none-eabi-10-2020-q4-major-win32\gcc-arm-none-eabi-10-2020-q4-major\arm-none-eabi\include\c++\10.2.1\bits\basic_string.h ****        *  @brief  Append a C substring.
1216:c:\gcc-arm-none-eabi-10-2020-q4-major-win32\gcc-arm-none-eabi-10-2020-q4-major\arm-none-eabi\include\c++\10.2.1\bits\basic_string.h ****        *  @param __s  The C string to append.
1217:c:\gcc-arm-none-eabi-10-2020-q4-major-win32\gcc-arm-none-eabi-10-2020-q4-major\arm-none-eabi\include\c++\10.2.1\bits\basic_string.h ****        *  @param __n  The number of characters to append.
1218:c:\gcc-arm-none-eabi-10-2020-q4-major-win32\gcc-arm-none-eabi-10-2020-q4-major\arm-none-eabi\include\c++\10.2.1\bits\basic_string.h ****        *  @return  Reference to this string.
1219:c:\gcc-arm-none-eabi-10-2020-q4-major-win32\gcc-arm-none-eabi-10-2020-q4-major\arm-none-eabi\include\c++\10.2.1\bits\basic_string.h ****        */
1220:c:\gcc-arm-none-eabi-10-2020-q4-major-win32\gcc-arm-none-eabi-10-2020-q4-major\arm-none-eabi\include\c++\10.2.1\bits\basic_string.h ****       basic_string&
1221:c:\gcc-arm-none-eabi-10-2020-q4-major-win32\gcc-arm-none-eabi-10-2020-q4-major\arm-none-eabi\include\c++\10.2.1\bits\basic_string.h ****       append(const _CharT* __s, size_type __n)
1222:c:\gcc-arm-none-eabi-10-2020-q4-major-win32\gcc-arm-none-eabi-10-2020-q4-major\arm-none-eabi\include\c++\10.2.1\bits\basic_string.h ****       {
1223:c:\gcc-arm-none-eabi-10-2020-q4-major-win32\gcc-arm-none-eabi-10-2020-q4-major\arm-none-eabi\include\c++\10.2.1\bits\basic_string.h **** 	__glibcxx_requires_string_len(__s, __n);
1224:c:\gcc-arm-none-eabi-10-2020-q4-major-win32\gcc-arm-none-eabi-10-2020-q4-major\arm-none-eabi\include\c++\10.2.1\bits\basic_string.h **** 	_M_check_length(size_type(0), __n, "basic_string::append");
1225:c:\gcc-arm-none-eabi-10-2020-q4-major-win32\gcc-arm-none-eabi-10-2020-q4-major\arm-none-eabi\include\c++\10.2.1\bits\basic_string.h **** 	return _M_append(__s, __n);
1226:c:\gcc-arm-none-eabi-10-2020-q4-major-win32\gcc-arm-none-eabi-10-2020-q4-major\arm-none-eabi\include\c++\10.2.1\bits\basic_string.h ****       }
1227:c:\gcc-arm-none-eabi-10-2020-q4-major-win32\gcc-arm-none-eabi-10-2020-q4-major\arm-none-eabi\include\c++\10.2.1\bits\basic_string.h **** 
1228:c:\gcc-arm-none-eabi-10-2020-q4-major-win32\gcc-arm-none-eabi-10-2020-q4-major\arm-none-eabi\include\c++\10.2.1\bits\basic_string.h ****       /**
1229:c:\gcc-arm-none-eabi-10-2020-q4-major-win32\gcc-arm-none-eabi-10-2020-q4-major\arm-none-eabi\include\c++\10.2.1\bits\basic_string.h ****        *  @brief  Append a C string.
1230:c:\gcc-arm-none-eabi-10-2020-q4-major-win32\gcc-arm-none-eabi-10-2020-q4-major\arm-none-eabi\include\c++\10.2.1\bits\basic_string.h ****        *  @param __s  The C string to append.
1231:c:\gcc-arm-none-eabi-10-2020-q4-major-win32\gcc-arm-none-eabi-10-2020-q4-major\arm-none-eabi\include\c++\10.2.1\bits\basic_string.h ****        *  @return  Reference to this string.
1232:c:\gcc-arm-none-eabi-10-2020-q4-major-win32\gcc-arm-none-eabi-10-2020-q4-major\arm-none-eabi\include\c++\10.2.1\bits\basic_string.h ****        */
1233:c:\gcc-arm-none-eabi-10-2020-q4-major-win32\gcc-arm-none-eabi-10-2020-q4-major\arm-none-eabi\include\c++\10.2.1\bits\basic_string.h ****       basic_string&
1234:c:\gcc-arm-none-eabi-10-2020-q4-major-win32\gcc-arm-none-eabi-10-2020-q4-major\arm-none-eabi\include\c++\10.2.1\bits\basic_string.h ****       append(const _CharT* __s)
1235:c:\gcc-arm-none-eabi-10-2020-q4-major-win32\gcc-arm-none-eabi-10-2020-q4-major\arm-none-eabi\include\c++\10.2.1\bits\basic_string.h ****       {
1236:c:\gcc-arm-none-eabi-10-2020-q4-major-win32\gcc-arm-none-eabi-10-2020-q4-major\arm-none-eabi\include\c++\10.2.1\bits\basic_string.h **** 	__glibcxx_requires_string(__s);
1237:c:\gcc-arm-none-eabi-10-2020-q4-major-win32\gcc-arm-none-eabi-10-2020-q4-major\arm-none-eabi\include\c++\10.2.1\bits\basic_string.h **** 	const size_type __n = traits_type::length(__s);
1238:c:\gcc-arm-none-eabi-10-2020-q4-major-win32\gcc-arm-none-eabi-10-2020-q4-major\arm-none-eabi\include\c++\10.2.1\bits\basic_string.h **** 	_M_check_length(size_type(0), __n, "basic_string::append");
1239:c:\gcc-arm-none-eabi-10-2020-q4-major-win32\gcc-arm-none-eabi-10-2020-q4-major\arm-none-eabi\include\c++\10.2.1\bits\basic_string.h **** 	return _M_append(__s, __n);
1240:c:\gcc-arm-none-eabi-10-2020-q4-major-win32\gcc-arm-none-eabi-10-2020-q4-major\arm-none-eabi\include\c++\10.2.1\bits\basic_string.h ****       }
1241:c:\gcc-arm-none-eabi-10-2020-q4-major-win32\gcc-arm-none-eabi-10-2020-q4-major\arm-none-eabi\include\c++\10.2.1\bits\basic_string.h **** 
1242:c:\gcc-arm-none-eabi-10-2020-q4-major-win32\gcc-arm-none-eabi-10-2020-q4-major\arm-none-eabi\include\c++\10.2.1\bits\basic_string.h ****       /**
1243:c:\gcc-arm-none-eabi-10-2020-q4-major-win32\gcc-arm-none-eabi-10-2020-q4-major\arm-none-eabi\include\c++\10.2.1\bits\basic_string.h ****        *  @brief  Append multiple characters.
1244:c:\gcc-arm-none-eabi-10-2020-q4-major-win32\gcc-arm-none-eabi-10-2020-q4-major\arm-none-eabi\include\c++\10.2.1\bits\basic_string.h ****        *  @param __n  The number of characters to append.
1245:c:\gcc-arm-none-eabi-10-2020-q4-major-win32\gcc-arm-none-eabi-10-2020-q4-major\arm-none-eabi\include\c++\10.2.1\bits\basic_string.h ****        *  @param __c  The character to use.
1246:c:\gcc-arm-none-eabi-10-2020-q4-major-win32\gcc-arm-none-eabi-10-2020-q4-major\arm-none-eabi\include\c++\10.2.1\bits\basic_string.h ****        *  @return  Reference to this string.
1247:c:\gcc-arm-none-eabi-10-2020-q4-major-win32\gcc-arm-none-eabi-10-2020-q4-major\arm-none-eabi\include\c++\10.2.1\bits\basic_string.h ****        *
1248:c:\gcc-arm-none-eabi-10-2020-q4-major-win32\gcc-arm-none-eabi-10-2020-q4-major\arm-none-eabi\include\c++\10.2.1\bits\basic_string.h ****        *  Appends __n copies of __c to this string.
1249:c:\gcc-arm-none-eabi-10-2020-q4-major-win32\gcc-arm-none-eabi-10-2020-q4-major\arm-none-eabi\include\c++\10.2.1\bits\basic_string.h ****        */
1250:c:\gcc-arm-none-eabi-10-2020-q4-major-win32\gcc-arm-none-eabi-10-2020-q4-major\arm-none-eabi\include\c++\10.2.1\bits\basic_string.h ****       basic_string&
1251:c:\gcc-arm-none-eabi-10-2020-q4-major-win32\gcc-arm-none-eabi-10-2020-q4-major\arm-none-eabi\include\c++\10.2.1\bits\basic_string.h ****       append(size_type __n, _CharT __c)
1252:c:\gcc-arm-none-eabi-10-2020-q4-major-win32\gcc-arm-none-eabi-10-2020-q4-major\arm-none-eabi\include\c++\10.2.1\bits\basic_string.h ****       { return _M_replace_aux(this->size(), size_type(0), __n, __c); }
1253:c:\gcc-arm-none-eabi-10-2020-q4-major-win32\gcc-arm-none-eabi-10-2020-q4-major\arm-none-eabi\include\c++\10.2.1\bits\basic_string.h **** 
1254:c:\gcc-arm-none-eabi-10-2020-q4-major-win32\gcc-arm-none-eabi-10-2020-q4-major\arm-none-eabi\include\c++\10.2.1\bits\basic_string.h **** #if __cplusplus >= 201103L
1255:c:\gcc-arm-none-eabi-10-2020-q4-major-win32\gcc-arm-none-eabi-10-2020-q4-major\arm-none-eabi\include\c++\10.2.1\bits\basic_string.h ****       /**
1256:c:\gcc-arm-none-eabi-10-2020-q4-major-win32\gcc-arm-none-eabi-10-2020-q4-major\arm-none-eabi\include\c++\10.2.1\bits\basic_string.h ****        *  @brief  Append an initializer_list of characters.
1257:c:\gcc-arm-none-eabi-10-2020-q4-major-win32\gcc-arm-none-eabi-10-2020-q4-major\arm-none-eabi\include\c++\10.2.1\bits\basic_string.h ****        *  @param __l  The initializer_list of characters to append.
1258:c:\gcc-arm-none-eabi-10-2020-q4-major-win32\gcc-arm-none-eabi-10-2020-q4-major\arm-none-eabi\include\c++\10.2.1\bits\basic_string.h ****        *  @return  Reference to this string.
1259:c:\gcc-arm-none-eabi-10-2020-q4-major-win32\gcc-arm-none-eabi-10-2020-q4-major\arm-none-eabi\include\c++\10.2.1\bits\basic_string.h ****        */
1260:c:\gcc-arm-none-eabi-10-2020-q4-major-win32\gcc-arm-none-eabi-10-2020-q4-major\arm-none-eabi\include\c++\10.2.1\bits\basic_string.h ****       basic_string&
1261:c:\gcc-arm-none-eabi-10-2020-q4-major-win32\gcc-arm-none-eabi-10-2020-q4-major\arm-none-eabi\include\c++\10.2.1\bits\basic_string.h ****       append(initializer_list<_CharT> __l)
1262:c:\gcc-arm-none-eabi-10-2020-q4-major-win32\gcc-arm-none-eabi-10-2020-q4-major\arm-none-eabi\include\c++\10.2.1\bits\basic_string.h ****       { return this->append(__l.begin(), __l.size()); }
1263:c:\gcc-arm-none-eabi-10-2020-q4-major-win32\gcc-arm-none-eabi-10-2020-q4-major\arm-none-eabi\include\c++\10.2.1\bits\basic_string.h **** #endif // C++11
1264:c:\gcc-arm-none-eabi-10-2020-q4-major-win32\gcc-arm-none-eabi-10-2020-q4-major\arm-none-eabi\include\c++\10.2.1\bits\basic_string.h **** 
1265:c:\gcc-arm-none-eabi-10-2020-q4-major-win32\gcc-arm-none-eabi-10-2020-q4-major\arm-none-eabi\include\c++\10.2.1\bits\basic_string.h ****       /**
1266:c:\gcc-arm-none-eabi-10-2020-q4-major-win32\gcc-arm-none-eabi-10-2020-q4-major\arm-none-eabi\include\c++\10.2.1\bits\basic_string.h ****        *  @brief  Append a range of characters.
1267:c:\gcc-arm-none-eabi-10-2020-q4-major-win32\gcc-arm-none-eabi-10-2020-q4-major\arm-none-eabi\include\c++\10.2.1\bits\basic_string.h ****        *  @param __first  Iterator referencing the first character to append.
1268:c:\gcc-arm-none-eabi-10-2020-q4-major-win32\gcc-arm-none-eabi-10-2020-q4-major\arm-none-eabi\include\c++\10.2.1\bits\basic_string.h ****        *  @param __last  Iterator marking the end of the range.
1269:c:\gcc-arm-none-eabi-10-2020-q4-major-win32\gcc-arm-none-eabi-10-2020-q4-major\arm-none-eabi\include\c++\10.2.1\bits\basic_string.h ****        *  @return  Reference to this string.
1270:c:\gcc-arm-none-eabi-10-2020-q4-major-win32\gcc-arm-none-eabi-10-2020-q4-major\arm-none-eabi\include\c++\10.2.1\bits\basic_string.h ****        *
ARM GAS  C:\Users\hoang\AppData\Local\Temp\ccNMsdI7.s 			page 29


1271:c:\gcc-arm-none-eabi-10-2020-q4-major-win32\gcc-arm-none-eabi-10-2020-q4-major\arm-none-eabi\include\c++\10.2.1\bits\basic_string.h ****        *  Appends characters in the range [__first,__last) to this string.
1272:c:\gcc-arm-none-eabi-10-2020-q4-major-win32\gcc-arm-none-eabi-10-2020-q4-major\arm-none-eabi\include\c++\10.2.1\bits\basic_string.h ****        */
1273:c:\gcc-arm-none-eabi-10-2020-q4-major-win32\gcc-arm-none-eabi-10-2020-q4-major\arm-none-eabi\include\c++\10.2.1\bits\basic_string.h **** #if __cplusplus >= 201103L
1274:c:\gcc-arm-none-eabi-10-2020-q4-major-win32\gcc-arm-none-eabi-10-2020-q4-major\arm-none-eabi\include\c++\10.2.1\bits\basic_string.h ****       template<class _InputIterator,
1275:c:\gcc-arm-none-eabi-10-2020-q4-major-win32\gcc-arm-none-eabi-10-2020-q4-major\arm-none-eabi\include\c++\10.2.1\bits\basic_string.h **** 	       typename = std::_RequireInputIter<_InputIterator>>
1276:c:\gcc-arm-none-eabi-10-2020-q4-major-win32\gcc-arm-none-eabi-10-2020-q4-major\arm-none-eabi\include\c++\10.2.1\bits\basic_string.h **** #else
1277:c:\gcc-arm-none-eabi-10-2020-q4-major-win32\gcc-arm-none-eabi-10-2020-q4-major\arm-none-eabi\include\c++\10.2.1\bits\basic_string.h ****       template<class _InputIterator>
1278:c:\gcc-arm-none-eabi-10-2020-q4-major-win32\gcc-arm-none-eabi-10-2020-q4-major\arm-none-eabi\include\c++\10.2.1\bits\basic_string.h **** #endif
1279:c:\gcc-arm-none-eabi-10-2020-q4-major-win32\gcc-arm-none-eabi-10-2020-q4-major\arm-none-eabi\include\c++\10.2.1\bits\basic_string.h ****         basic_string&
1280:c:\gcc-arm-none-eabi-10-2020-q4-major-win32\gcc-arm-none-eabi-10-2020-q4-major\arm-none-eabi\include\c++\10.2.1\bits\basic_string.h ****         append(_InputIterator __first, _InputIterator __last)
1281:c:\gcc-arm-none-eabi-10-2020-q4-major-win32\gcc-arm-none-eabi-10-2020-q4-major\arm-none-eabi\include\c++\10.2.1\bits\basic_string.h ****         { return this->replace(end(), end(), __first, __last); }
1282:c:\gcc-arm-none-eabi-10-2020-q4-major-win32\gcc-arm-none-eabi-10-2020-q4-major\arm-none-eabi\include\c++\10.2.1\bits\basic_string.h **** 
1283:c:\gcc-arm-none-eabi-10-2020-q4-major-win32\gcc-arm-none-eabi-10-2020-q4-major\arm-none-eabi\include\c++\10.2.1\bits\basic_string.h **** #if __cplusplus >= 201703L
1284:c:\gcc-arm-none-eabi-10-2020-q4-major-win32\gcc-arm-none-eabi-10-2020-q4-major\arm-none-eabi\include\c++\10.2.1\bits\basic_string.h ****       /**
1285:c:\gcc-arm-none-eabi-10-2020-q4-major-win32\gcc-arm-none-eabi-10-2020-q4-major\arm-none-eabi\include\c++\10.2.1\bits\basic_string.h ****        *  @brief  Append a string_view.
1286:c:\gcc-arm-none-eabi-10-2020-q4-major-win32\gcc-arm-none-eabi-10-2020-q4-major\arm-none-eabi\include\c++\10.2.1\bits\basic_string.h ****        *  @param __svt  An object convertible to string_view to be appended.
1287:c:\gcc-arm-none-eabi-10-2020-q4-major-win32\gcc-arm-none-eabi-10-2020-q4-major\arm-none-eabi\include\c++\10.2.1\bits\basic_string.h ****        *  @return  Reference to this string.
1288:c:\gcc-arm-none-eabi-10-2020-q4-major-win32\gcc-arm-none-eabi-10-2020-q4-major\arm-none-eabi\include\c++\10.2.1\bits\basic_string.h ****        */
1289:c:\gcc-arm-none-eabi-10-2020-q4-major-win32\gcc-arm-none-eabi-10-2020-q4-major\arm-none-eabi\include\c++\10.2.1\bits\basic_string.h ****       template<typename _Tp>
1290:c:\gcc-arm-none-eabi-10-2020-q4-major-win32\gcc-arm-none-eabi-10-2020-q4-major\arm-none-eabi\include\c++\10.2.1\bits\basic_string.h ****         _If_sv<_Tp, basic_string&>
1291:c:\gcc-arm-none-eabi-10-2020-q4-major-win32\gcc-arm-none-eabi-10-2020-q4-major\arm-none-eabi\include\c++\10.2.1\bits\basic_string.h ****         append(const _Tp& __svt)
1292:c:\gcc-arm-none-eabi-10-2020-q4-major-win32\gcc-arm-none-eabi-10-2020-q4-major\arm-none-eabi\include\c++\10.2.1\bits\basic_string.h ****         {
1293:c:\gcc-arm-none-eabi-10-2020-q4-major-win32\gcc-arm-none-eabi-10-2020-q4-major\arm-none-eabi\include\c++\10.2.1\bits\basic_string.h ****           __sv_type __sv = __svt;
1294:c:\gcc-arm-none-eabi-10-2020-q4-major-win32\gcc-arm-none-eabi-10-2020-q4-major\arm-none-eabi\include\c++\10.2.1\bits\basic_string.h ****           return this->append(__sv.data(), __sv.size());
1295:c:\gcc-arm-none-eabi-10-2020-q4-major-win32\gcc-arm-none-eabi-10-2020-q4-major\arm-none-eabi\include\c++\10.2.1\bits\basic_string.h ****         }
1296:c:\gcc-arm-none-eabi-10-2020-q4-major-win32\gcc-arm-none-eabi-10-2020-q4-major\arm-none-eabi\include\c++\10.2.1\bits\basic_string.h **** 
1297:c:\gcc-arm-none-eabi-10-2020-q4-major-win32\gcc-arm-none-eabi-10-2020-q4-major\arm-none-eabi\include\c++\10.2.1\bits\basic_string.h ****       /**
1298:c:\gcc-arm-none-eabi-10-2020-q4-major-win32\gcc-arm-none-eabi-10-2020-q4-major\arm-none-eabi\include\c++\10.2.1\bits\basic_string.h ****        *  @brief  Append a range of characters from a string_view.
1299:c:\gcc-arm-none-eabi-10-2020-q4-major-win32\gcc-arm-none-eabi-10-2020-q4-major\arm-none-eabi\include\c++\10.2.1\bits\basic_string.h ****        *  @param __svt  An object convertible to string_view to be appended from.
1300:c:\gcc-arm-none-eabi-10-2020-q4-major-win32\gcc-arm-none-eabi-10-2020-q4-major\arm-none-eabi\include\c++\10.2.1\bits\basic_string.h ****        *  @param __pos The position in the string_view to append from.
1301:c:\gcc-arm-none-eabi-10-2020-q4-major-win32\gcc-arm-none-eabi-10-2020-q4-major\arm-none-eabi\include\c++\10.2.1\bits\basic_string.h ****        *  @param __n   The number of characters to append from the string_view.
1302:c:\gcc-arm-none-eabi-10-2020-q4-major-win32\gcc-arm-none-eabi-10-2020-q4-major\arm-none-eabi\include\c++\10.2.1\bits\basic_string.h ****        *  @return  Reference to this string.
1303:c:\gcc-arm-none-eabi-10-2020-q4-major-win32\gcc-arm-none-eabi-10-2020-q4-major\arm-none-eabi\include\c++\10.2.1\bits\basic_string.h ****        */
1304:c:\gcc-arm-none-eabi-10-2020-q4-major-win32\gcc-arm-none-eabi-10-2020-q4-major\arm-none-eabi\include\c++\10.2.1\bits\basic_string.h ****       template<typename _Tp>
1305:c:\gcc-arm-none-eabi-10-2020-q4-major-win32\gcc-arm-none-eabi-10-2020-q4-major\arm-none-eabi\include\c++\10.2.1\bits\basic_string.h ****         _If_sv<_Tp, basic_string&>
1306:c:\gcc-arm-none-eabi-10-2020-q4-major-win32\gcc-arm-none-eabi-10-2020-q4-major\arm-none-eabi\include\c++\10.2.1\bits\basic_string.h **** 	append(const _Tp& __svt, size_type __pos, size_type __n = npos)
1307:c:\gcc-arm-none-eabi-10-2020-q4-major-win32\gcc-arm-none-eabi-10-2020-q4-major\arm-none-eabi\include\c++\10.2.1\bits\basic_string.h **** 	{
1308:c:\gcc-arm-none-eabi-10-2020-q4-major-win32\gcc-arm-none-eabi-10-2020-q4-major\arm-none-eabi\include\c++\10.2.1\bits\basic_string.h **** 	  __sv_type __sv = __svt;
1309:c:\gcc-arm-none-eabi-10-2020-q4-major-win32\gcc-arm-none-eabi-10-2020-q4-major\arm-none-eabi\include\c++\10.2.1\bits\basic_string.h **** 	  return _M_append(__sv.data()
1310:c:\gcc-arm-none-eabi-10-2020-q4-major-win32\gcc-arm-none-eabi-10-2020-q4-major\arm-none-eabi\include\c++\10.2.1\bits\basic_string.h **** 	      + std::__sv_check(__sv.size(), __pos, "basic_string::append"),
1311:c:\gcc-arm-none-eabi-10-2020-q4-major-win32\gcc-arm-none-eabi-10-2020-q4-major\arm-none-eabi\include\c++\10.2.1\bits\basic_string.h **** 	      std::__sv_limit(__sv.size(), __pos, __n));
1312:c:\gcc-arm-none-eabi-10-2020-q4-major-win32\gcc-arm-none-eabi-10-2020-q4-major\arm-none-eabi\include\c++\10.2.1\bits\basic_string.h **** 	}
1313:c:\gcc-arm-none-eabi-10-2020-q4-major-win32\gcc-arm-none-eabi-10-2020-q4-major\arm-none-eabi\include\c++\10.2.1\bits\basic_string.h **** #endif // C++17
1314:c:\gcc-arm-none-eabi-10-2020-q4-major-win32\gcc-arm-none-eabi-10-2020-q4-major\arm-none-eabi\include\c++\10.2.1\bits\basic_string.h **** 
1315:c:\gcc-arm-none-eabi-10-2020-q4-major-win32\gcc-arm-none-eabi-10-2020-q4-major\arm-none-eabi\include\c++\10.2.1\bits\basic_string.h ****       /**
1316:c:\gcc-arm-none-eabi-10-2020-q4-major-win32\gcc-arm-none-eabi-10-2020-q4-major\arm-none-eabi\include\c++\10.2.1\bits\basic_string.h ****        *  @brief  Append a single character.
1317:c:\gcc-arm-none-eabi-10-2020-q4-major-win32\gcc-arm-none-eabi-10-2020-q4-major\arm-none-eabi\include\c++\10.2.1\bits\basic_string.h ****        *  @param __c  Character to append.
1318:c:\gcc-arm-none-eabi-10-2020-q4-major-win32\gcc-arm-none-eabi-10-2020-q4-major\arm-none-eabi\include\c++\10.2.1\bits\basic_string.h ****        */
1319:c:\gcc-arm-none-eabi-10-2020-q4-major-win32\gcc-arm-none-eabi-10-2020-q4-major\arm-none-eabi\include\c++\10.2.1\bits\basic_string.h ****       void
1320:c:\gcc-arm-none-eabi-10-2020-q4-major-win32\gcc-arm-none-eabi-10-2020-q4-major\arm-none-eabi\include\c++\10.2.1\bits\basic_string.h ****       push_back(_CharT __c)
1321:c:\gcc-arm-none-eabi-10-2020-q4-major-win32\gcc-arm-none-eabi-10-2020-q4-major\arm-none-eabi\include\c++\10.2.1\bits\basic_string.h ****       {
1322:c:\gcc-arm-none-eabi-10-2020-q4-major-win32\gcc-arm-none-eabi-10-2020-q4-major\arm-none-eabi\include\c++\10.2.1\bits\basic_string.h **** 	const size_type __size = this->size();
1323:c:\gcc-arm-none-eabi-10-2020-q4-major-win32\gcc-arm-none-eabi-10-2020-q4-major\arm-none-eabi\include\c++\10.2.1\bits\basic_string.h **** 	if (__size + 1 > this->capacity())
1324:c:\gcc-arm-none-eabi-10-2020-q4-major-win32\gcc-arm-none-eabi-10-2020-q4-major\arm-none-eabi\include\c++\10.2.1\bits\basic_string.h **** 	  this->_M_mutate(__size, size_type(0), 0, size_type(1));
1325:c:\gcc-arm-none-eabi-10-2020-q4-major-win32\gcc-arm-none-eabi-10-2020-q4-major\arm-none-eabi\include\c++\10.2.1\bits\basic_string.h **** 	traits_type::assign(this->_M_data()[__size], __c);
1326:c:\gcc-arm-none-eabi-10-2020-q4-major-win32\gcc-arm-none-eabi-10-2020-q4-major\arm-none-eabi\include\c++\10.2.1\bits\basic_string.h **** 	this->_M_set_length(__size + 1);
1327:c:\gcc-arm-none-eabi-10-2020-q4-major-win32\gcc-arm-none-eabi-10-2020-q4-major\arm-none-eabi\include\c++\10.2.1\bits\basic_string.h ****       }
ARM GAS  C:\Users\hoang\AppData\Local\Temp\ccNMsdI7.s 			page 30


1328:c:\gcc-arm-none-eabi-10-2020-q4-major-win32\gcc-arm-none-eabi-10-2020-q4-major\arm-none-eabi\include\c++\10.2.1\bits\basic_string.h **** 
1329:c:\gcc-arm-none-eabi-10-2020-q4-major-win32\gcc-arm-none-eabi-10-2020-q4-major\arm-none-eabi\include\c++\10.2.1\bits\basic_string.h ****       /**
1330:c:\gcc-arm-none-eabi-10-2020-q4-major-win32\gcc-arm-none-eabi-10-2020-q4-major\arm-none-eabi\include\c++\10.2.1\bits\basic_string.h ****        *  @brief  Set value to contents of another string.
1331:c:\gcc-arm-none-eabi-10-2020-q4-major-win32\gcc-arm-none-eabi-10-2020-q4-major\arm-none-eabi\include\c++\10.2.1\bits\basic_string.h ****        *  @param  __str  Source string to use.
1332:c:\gcc-arm-none-eabi-10-2020-q4-major-win32\gcc-arm-none-eabi-10-2020-q4-major\arm-none-eabi\include\c++\10.2.1\bits\basic_string.h ****        *  @return  Reference to this string.
1333:c:\gcc-arm-none-eabi-10-2020-q4-major-win32\gcc-arm-none-eabi-10-2020-q4-major\arm-none-eabi\include\c++\10.2.1\bits\basic_string.h ****        */
1334:c:\gcc-arm-none-eabi-10-2020-q4-major-win32\gcc-arm-none-eabi-10-2020-q4-major\arm-none-eabi\include\c++\10.2.1\bits\basic_string.h ****       basic_string&
1335:c:\gcc-arm-none-eabi-10-2020-q4-major-win32\gcc-arm-none-eabi-10-2020-q4-major\arm-none-eabi\include\c++\10.2.1\bits\basic_string.h ****       assign(const basic_string& __str)
1336:c:\gcc-arm-none-eabi-10-2020-q4-major-win32\gcc-arm-none-eabi-10-2020-q4-major\arm-none-eabi\include\c++\10.2.1\bits\basic_string.h ****       {
